
h:/IOT2/IOT2/pottySense/lasPotential/target/5.9.0/p2/lasPotential.elf:     file format elf32-littlearm

Sections:
Idx Name          Size      VMA       LMA       File off  Algn
  0 .module_info  00000018  085fd000  085fd000  0000d000  2**0
                  CONTENTS, ALLOC, LOAD, READONLY, DATA
  1 .text         0000008c  085fd018  085fd018  0000d018  2**2
                  CONTENTS, ALLOC, LOAD, READONLY, CODE
  2 .dynalib      00000008  023fe088  085fd0a8  0000e088  2**3
                  CONTENTS, ALLOC, LOAD, READONLY, DATA
  3 .psram_text   00001f68  023fe090  085fd0b0  0000e090  2**2
                  CONTENTS, ALLOC, LOAD, CODE
  4 .data_alt     00000000  023ffff8  023ffff8  00020000  2**0
                  CONTENTS
  5 .bss_alt      00000000  023ffff8  023ffff8  00020000  2**0
                  CONTENTS
  6 .data         00000070  1007add8  085ff018  0001add8  2**2
                  CONTENTS, ALLOC, LOAD, DATA
  7 .bss          000001b4  1007ae48  1007ae48  0002ae48  2**2
                  ALLOC
  8 .secure_ram_text 00000000  1007e000  1007e000  00020000  2**0
                  CONTENTS
  9 .backup       00000004  1007b400  085ff088  0001b400  2**2
                  CONTENTS, ALLOC, LOAD, DATA
 10 .module_info_suffix_align 00000f2c  085ff08c  085ff08c  0001f08c  2**0
                  ALLOC
 11 .module_info_product 00000006  085fffb8  085fffb8  0001f08c  2**0
                  ALLOC
 12 .module_info_suffix 0000003e  085fffbe  085fffbe  0001ffbe  2**0
                  CONTENTS, ALLOC, LOAD, READONLY, DATA
 13 .module_info_crc 00000004  085ffffc  085ffffc  0001fffc  2**0
                  CONTENTS, ALLOC, LOAD, READONLY, DATA
 14 .debug_info   0012fe27  00000000  00000000  00020000  2**0
                  CONTENTS, READONLY, DEBUGGING, OCTETS
 15 .debug_abbrev 00013359  00000000  00000000  0014fe27  2**0
                  CONTENTS, READONLY, DEBUGGING, OCTETS
 16 .debug_loc    00038fac  00000000  00000000  00163180  2**0
                  CONTENTS, READONLY, DEBUGGING, OCTETS
 17 .debug_aranges 00002b70  00000000  00000000  0019c12c  2**0
                  CONTENTS, READONLY, DEBUGGING, OCTETS
 18 .debug_ranges 0000ac38  00000000  00000000  0019ec9c  2**0
                  CONTENTS, READONLY, DEBUGGING, OCTETS
 19 .debug_macro  00028bec  00000000  00000000  001a98d4  2**0
                  CONTENTS, READONLY, DEBUGGING, OCTETS
 20 .debug_line   00043591  00000000  00000000  001d24c0  2**0
                  CONTENTS, READONLY, DEBUGGING, OCTETS
 21 .debug_str    000e4080  00000000  00000000  00215a51  2**0
                  CONTENTS, READONLY, DEBUGGING, OCTETS
 22 .debug_frame  000078b4  00000000  00000000  002f9ad4  2**2
                  CONTENTS, READONLY, DEBUGGING, OCTETS

Disassembly of section .text:

085fd018 <module_user_pre_init>:
 * Initializes this user module. Returns the start of the heap.
 */
__attribute__((section(".xip.text"))) void* module_user_pre_init() {
    // NOTE: Must invoke APIs in ROM
    // Copy .data
    if ( (&link_global_data_start != &link_global_data_initial_values) && (link_global_data_size != 0))
 85fd018:	4813      	ldr	r0, [pc, #76]	; (85fd068 <module_user_pre_init+0x50>)
 85fd01a:	4914      	ldr	r1, [pc, #80]	; (85fd06c <module_user_pre_init+0x54>)
__attribute__((section(".xip.text"))) void* module_user_pre_init() {
 85fd01c:	b508      	push	{r3, lr}
    if ( (&link_global_data_start != &link_global_data_initial_values) && (link_global_data_size != 0))
 85fd01e:	4288      	cmp	r0, r1
 85fd020:	d005      	beq.n	85fd02e <module_user_pre_init+0x16>
 85fd022:	4a13      	ldr	r2, [pc, #76]	; (85fd070 <module_user_pre_init+0x58>)
 85fd024:	4282      	cmp	r2, r0
 85fd026:	d002      	beq.n	85fd02e <module_user_pre_init+0x16>
    {
        _memcpy(&link_global_data_start, &link_global_data_initial_values, link_global_data_size);
 85fd028:	4b12      	ldr	r3, [pc, #72]	; (85fd074 <module_user_pre_init+0x5c>)
 85fd02a:	1a12      	subs	r2, r2, r0
 85fd02c:	4798      	blx	r3
    }

    // Initialize .bss
    _memset(&link_bss_location, 0, link_bss_size );
 85fd02e:	4812      	ldr	r0, [pc, #72]	; (85fd078 <module_user_pre_init+0x60>)
 85fd030:	4a12      	ldr	r2, [pc, #72]	; (85fd07c <module_user_pre_init+0x64>)
 85fd032:	2100      	movs	r1, #0
 85fd034:	4b12      	ldr	r3, [pc, #72]	; (85fd080 <module_user_pre_init+0x68>)
 85fd036:	1a12      	subs	r2, r2, r0
 85fd038:	4798      	blx	r3

    // Copy .dynalib
    if ( (&link_dynalib_start != &link_dynalib_flash_start) && (link_dynalib_size != 0))
 85fd03a:	4812      	ldr	r0, [pc, #72]	; (85fd084 <module_user_pre_init+0x6c>)
 85fd03c:	4912      	ldr	r1, [pc, #72]	; (85fd088 <module_user_pre_init+0x70>)
 85fd03e:	4288      	cmp	r0, r1
 85fd040:	d005      	beq.n	85fd04e <module_user_pre_init+0x36>
 85fd042:	4a12      	ldr	r2, [pc, #72]	; (85fd08c <module_user_pre_init+0x74>)
 85fd044:	4282      	cmp	r2, r0
 85fd046:	d002      	beq.n	85fd04e <module_user_pre_init+0x36>
    {
        _memcpy(&link_dynalib_start, &link_dynalib_flash_start, link_dynalib_size);
 85fd048:	4b0a      	ldr	r3, [pc, #40]	; (85fd074 <module_user_pre_init+0x5c>)
 85fd04a:	1a12      	subs	r2, r2, r0
 85fd04c:	4798      	blx	r3
    }

    // Copy .psram_text
    if ( (&link_psram_code_start != &link_psram_code_flash_start) && (link_psram_code_size != 0))
 85fd04e:	4810      	ldr	r0, [pc, #64]	; (85fd090 <module_user_pre_init+0x78>)
 85fd050:	4910      	ldr	r1, [pc, #64]	; (85fd094 <module_user_pre_init+0x7c>)
 85fd052:	4288      	cmp	r0, r1
 85fd054:	d005      	beq.n	85fd062 <module_user_pre_init+0x4a>
 85fd056:	4a10      	ldr	r2, [pc, #64]	; (85fd098 <module_user_pre_init+0x80>)
 85fd058:	4282      	cmp	r2, r0
 85fd05a:	d002      	beq.n	85fd062 <module_user_pre_init+0x4a>
    {
        _memcpy(&link_psram_code_start, &link_psram_code_flash_start, link_psram_code_size);
 85fd05c:	4b05      	ldr	r3, [pc, #20]	; (85fd074 <module_user_pre_init+0x5c>)
 85fd05e:	1a12      	subs	r2, r2, r0
 85fd060:	4798      	blx	r3
    }

    return &link_global_data_start;
}
 85fd062:	4801      	ldr	r0, [pc, #4]	; (85fd068 <module_user_pre_init+0x50>)
 85fd064:	bd08      	pop	{r3, pc}
 85fd066:	bf00      	nop
 85fd068:	1007add8 	.word	0x1007add8
 85fd06c:	085ff018 	.word	0x085ff018
 85fd070:	1007ae48 	.word	0x1007ae48
 85fd074:	10110d2d 	.word	0x10110d2d
 85fd078:	1007ae48 	.word	0x1007ae48
 85fd07c:	1007affc 	.word	0x1007affc
 85fd080:	10110ea1 	.word	0x10110ea1
 85fd084:	023fe088 	.word	0x023fe088
 85fd088:	085fd0a8 	.word	0x085fd0a8
 85fd08c:	023fe090 	.word	0x023fe090
 85fd090:	023fe090 	.word	0x023fe090
 85fd094:	085fd0b0 	.word	0x085fd0b0
 85fd098:	023ffff8 	.word	0x023ffff8

085fd09c <dynalib_preinit>:
 85fd09c:	085fd019 00000000                       .._.....

Disassembly of section .psram_text:

023fe090 <strlen>:
 23fe090:	4603      	mov	r3, r0
 23fe092:	f813 2b01 	ldrb.w	r2, [r3], #1
 23fe096:	2a00      	cmp	r2, #0
 23fe098:	d1fb      	bne.n	23fe092 <strlen+0x2>
 23fe09a:	1a18      	subs	r0, r3, r0
 23fe09c:	3801      	subs	r0, #1
 23fe09e:	4770      	bx	lr

023fe0a0 <module_user_init>:
extern constructor_ptr_t link_constructors_location[];
extern constructor_ptr_t link_constructors_end;
#define link_constructors_size   ((unsigned long)&link_constructors_end  -  (unsigned long)&link_constructors_location )

void module_user_init()
{
 23fe0a0:	b570      	push	{r4, r5, r6, lr}
    module_user_init_hook();
 23fe0a2:	f001 f90b 	bl	23ff2bc <module_user_init_hook>

    // invoke constructors
    unsigned ctor_num;
    for (ctor_num=0; ctor_num < link_constructors_size/sizeof(constructor_ptr_t); ctor_num++ )
 23fe0a6:	2500      	movs	r5, #0
 23fe0a8:	4e05      	ldr	r6, [pc, #20]	; (23fe0c0 <module_user_init+0x20>)
 23fe0aa:	4c06      	ldr	r4, [pc, #24]	; (23fe0c4 <module_user_init+0x24>)
 23fe0ac:	1ba4      	subs	r4, r4, r6
 23fe0ae:	08a4      	lsrs	r4, r4, #2
 23fe0b0:	42ac      	cmp	r4, r5
 23fe0b2:	d100      	bne.n	23fe0b6 <module_user_init+0x16>
    {
        link_constructors_location[ctor_num]();
    }
}
 23fe0b4:	bd70      	pop	{r4, r5, r6, pc}
        link_constructors_location[ctor_num]();
 23fe0b6:	f856 3b04 	ldr.w	r3, [r6], #4
 23fe0ba:	4798      	blx	r3
    for (ctor_num=0; ctor_num < link_constructors_size/sizeof(constructor_ptr_t); ctor_num++ )
 23fe0bc:	3501      	adds	r5, #1
 23fe0be:	e7f7      	b.n	23fe0b0 <module_user_init+0x10>
 23fe0c0:	023fffd0 	.word	0x023fffd0
 23fe0c4:	023ffff8 	.word	0x023ffff8

023fe0c8 <module_user_setup>:

/**
 * Export these functions with a fuller name so they don't clash with the setup/loop wrappers in the system module.
 */
void module_user_setup() {
    setup();
 23fe0c8:	f000 b822 	b.w	23fe110 <setup>

023fe0cc <module_user_loop>:
}

void module_user_loop() {
 23fe0cc:	b508      	push	{r3, lr}
    loop();
 23fe0ce:	f000 f861 	bl	23fe194 <loop>
    _post_loop();
}
 23fe0d2:	e8bd 4008 	ldmia.w	sp!, {r3, lr}
    _post_loop();
 23fe0d6:	f001 b8a9 	b.w	23ff22c <_post_loop>

023fe0da <_Znaj>:
 23fe0da:	f000 be9d 	b.w	23fee18 <malloc>

023fe0de <_ZdlPvj>:
	free(p);
}

void operator delete(void *p, size_t size)
{
	free(p);
 23fe0de:	f000 bea9 	b.w	23fee34 <free>

023fe0e2 <__cxa_guard_acquire>:

/* Provide default implemenation for __cxa_guard_acquire() and
 * __cxa_guard_release(). Note: these must be revisited if a multitasking
 * OS is ported to this platform. */
__extension__ typedef int __guard __attribute__((mode (__DI__)));
int __cxa_guard_acquire(__guard *g) {return !*(char *)(g);};
 23fe0e2:	7800      	ldrb	r0, [r0, #0]
 23fe0e4:	fab0 f080 	clz	r0, r0
 23fe0e8:	0940      	lsrs	r0, r0, #5
 23fe0ea:	4770      	bx	lr

023fe0ec <__cxa_guard_release>:
void __cxa_guard_release (__guard *g) {*(char *)g = 1;};
 23fe0ec:	2301      	movs	r3, #1
 23fe0ee:	7003      	strb	r3, [r0, #0]
 23fe0f0:	4770      	bx	lr

023fe0f2 <_ZN5Print6printfEPKcz>:

    size_t println(const Printable&);
    size_t println(void);
    size_t println(const __FlashStringHelper*);

    size_t printf(const char* format, ...) __attribute__ ((format(printf, 2, 3)))
 23fe0f2:	b40e      	push	{r1, r2, r3}
 23fe0f4:	b503      	push	{r0, r1, lr}
 23fe0f6:	ab03      	add	r3, sp, #12
 23fe0f8:	f853 2b04 	ldr.w	r2, [r3], #4
    {
        va_list args;
        va_start(args, format);
        auto r = this->vprintf(false, format, args);
 23fe0fc:	2100      	movs	r1, #0
        va_start(args, format);
 23fe0fe:	9301      	str	r3, [sp, #4]
        auto r = this->vprintf(false, format, args);
 23fe100:	f000 ffef 	bl	23ff0e2 <_ZN5Print7vprintfEbPKcSt9__va_list>
        va_end(args);
        return r;
    }
 23fe104:	b002      	add	sp, #8
 23fe106:	f85d eb04 	ldr.w	lr, [sp], #4
 23fe10a:	b003      	add	sp, #12
 23fe10c:	4770      	bx	lr
	...

023fe110 <setup>:
///////////////
///OBJECTS//////
///////////////
Adafruit_NeoPixel pixel(PIXELCOUNT, SPI1, WS2812B);

void setup() {
 23fe110:	b538      	push	{r3, r4, r5, lr}
  Serial.begin();
 23fe112:	f001 f9df 	bl	23ff4d4 <_Z16_fetch_usbserialv>
 23fe116:	f44f 5116 	mov.w	r1, #9600	; 0x2580
 23fe11a:	f001 f9cb 	bl	23ff4b4 <_ZN9USBSerial5beginEl>
        HAL_Core_Button_Mirror_Pin_Disable((uint8_t)bootloader, 0, nullptr);
    }

    // This function is similar to the global millis() but returns a 64-bit value
    static uint64_t millis() {
        return hal_timer_millis(nullptr);
 23fe11e:	2000      	movs	r0, #0
 23fe120:	f000 fb6a 	bl	23fe7f8 <hal_timer_millis>
        while (_while() && !_condition()) {
 23fe124:	f242 7510 	movw	r5, #10000	; 0x2710
        return hal_timer_millis(nullptr);
 23fe128:	4604      	mov	r4, r0
 23fe12a:	2000      	movs	r0, #0
 23fe12c:	f000 fb64 	bl	23fe7f8 <hal_timer_millis>
        return waitConditionWhile(_condition, [=]{ return (millis()-start)<timeout; });
 23fe130:	1b00      	subs	r0, r0, r4
 23fe132:	f161 0100 	sbc.w	r1, r1, #0
        while (_while() && !_condition()) {
 23fe136:	42a8      	cmp	r0, r5
 23fe138:	f171 0300 	sbcs.w	r3, r1, #0
 23fe13c:	d207      	bcs.n	23fe14e <setup+0x3e>
  waitFor(Serial.isConnected,10000);
 23fe13e:	f001 f9c9 	bl	23ff4d4 <_Z16_fetch_usbserialv>
 23fe142:	f001 f9bb 	bl	23ff4bc <_ZN9USBSerial11isConnectedEv>
 23fe146:	b910      	cbnz	r0, 23fe14e <setup+0x3e>
            spark_process();
 23fe148:	f000 fe4a 	bl	23fede0 <spark_process>
        while (_while() && !_condition()) {
 23fe14c:	e7ed      	b.n	23fe12a <setup+0x1a>
 23fe14e:	f001 f9c1 	bl	23ff4d4 <_Z16_fetch_usbserialv>
 23fe152:	f001 f9b3 	bl	23ff4bc <_ZN9USBSerial11isConnectedEv>

  /////////
  //pinMode
  /////////
  pinMode(LAS,OUTPUT);
 23fe156:	2101      	movs	r1, #1
 23fe158:	2003      	movs	r0, #3
 23fe15a:	f001 fbd7 	bl	23ff90c <pinMode>
  pinMode(PHOTO,INPUT);
 23fe15e:	2100      	movs	r1, #0
 23fe160:	200b      	movs	r0, #11
 23fe162:	f001 fbd3 	bl	23ff90c <pinMode>

  /////////
  //neopixel
  ///////// 
  pixel.begin();
 23fe166:	480a      	ldr	r0, [pc, #40]	; (23fe190 <setup+0x80>)
 23fe168:	f000 f8d2 	bl	23fe310 <_ZN17Adafruit_NeoPixel5beginEv>
  pixel.setBrightness(10);
 23fe16c:	210a      	movs	r1, #10
 23fe16e:	4808      	ldr	r0, [pc, #32]	; (23fe190 <setup+0x80>)
 23fe170:	f000 fa81 	bl	23fe676 <_ZN17Adafruit_NeoPixel13setBrightnessEh>
  for(int i = 0; i <PIXELCOUNT; i++){
 23fe174:	2400      	movs	r4, #0
    pixel.setPixelColor(i,blue);
 23fe176:	4d06      	ldr	r5, [pc, #24]	; (23fe190 <setup+0x80>)
 23fe178:	b2a1      	uxth	r1, r4
 23fe17a:	22ff      	movs	r2, #255	; 0xff
 23fe17c:	4628      	mov	r0, r5
 23fe17e:	f000 fa37 	bl	23fe5f0 <_ZN17Adafruit_NeoPixel13setPixelColorEtm>
  for(int i = 0; i <PIXELCOUNT; i++){
 23fe182:	3401      	adds	r4, #1
    pixel.show();
 23fe184:	4628      	mov	r0, r5
 23fe186:	f000 f929 	bl	23fe3dc <_ZN17Adafruit_NeoPixel4showEv>
  for(int i = 0; i <PIXELCOUNT; i++){
 23fe18a:	2c0c      	cmp	r4, #12
 23fe18c:	d1f4      	bne.n	23fe178 <setup+0x68>
  }
}
 23fe18e:	bd38      	pop	{r3, r4, r5, pc}
 23fe190:	1007ae60 	.word	0x1007ae60

023fe194 <loop>:


void loop() {
 23fe194:	b5f8      	push	{r3, r4, r5, r6, r7, lr}
digitalWrite(LAS,HIGH);
 23fe196:	2101      	movs	r1, #1
 23fe198:	2003      	movs	r0, #3
 23fe19a:	f001 fbc8 	bl	23ff92e <digitalWrite>

reading = analogRead(PHOTO);
 23fe19e:	200b      	movs	r0, #11
 23fe1a0:	f001 fbf1 	bl	23ff986 <analogRead>
prevRead = 0;
 23fe1a4:	2400      	movs	r4, #0
reading = analogRead(PHOTO);
 23fe1a6:	4d1c      	ldr	r5, [pc, #112]	; (23fe218 <loop+0x84>)
prevRead = 0;
 23fe1a8:	4e1c      	ldr	r6, [pc, #112]	; (23fe21c <loop+0x88>)
reading = analogRead(PHOTO);
 23fe1aa:	6028      	str	r0, [r5, #0]
prevRead = 0;
 23fe1ac:	6034      	str	r4, [r6, #0]
if(reading != prevRead){
 23fe1ae:	b968      	cbnz	r0, 23fe1cc <loop+0x38>
Serial.printf("reading %i\n",reading);
prevRead = reading;
delay(1000);
if(reading > 7){
  Serial.printf("yellow");
  for(int i = 0; i <PIXELCOUNT; i++){
 23fe1b0:	2400      	movs	r4, #0
  }
}
}
if(reading<7){
   for(int i = 0; i <PIXELCOUNT; i++){
    pixel.setPixelColor(i,blue);
 23fe1b2:	4d1b      	ldr	r5, [pc, #108]	; (23fe220 <loop+0x8c>)
 23fe1b4:	b2a1      	uxth	r1, r4
 23fe1b6:	22ff      	movs	r2, #255	; 0xff
 23fe1b8:	4628      	mov	r0, r5
 23fe1ba:	f000 fa19 	bl	23fe5f0 <_ZN17Adafruit_NeoPixel13setPixelColorEtm>
   for(int i = 0; i <PIXELCOUNT; i++){
 23fe1be:	3401      	adds	r4, #1
    pixel.show();
 23fe1c0:	4628      	mov	r0, r5
 23fe1c2:	f000 f90b 	bl	23fe3dc <_ZN17Adafruit_NeoPixel4showEv>
   for(int i = 0; i <PIXELCOUNT; i++){
 23fe1c6:	2c0c      	cmp	r4, #12
 23fe1c8:	d1f4      	bne.n	23fe1b4 <loop+0x20>
 23fe1ca:	e023      	b.n	23fe214 <loop+0x80>
Serial.printf("reading %i\n",reading);
 23fe1cc:	f001 f982 	bl	23ff4d4 <_Z16_fetch_usbserialv>
 23fe1d0:	682a      	ldr	r2, [r5, #0]
 23fe1d2:	4914      	ldr	r1, [pc, #80]	; (23fe224 <loop+0x90>)
 23fe1d4:	f7ff ff8d 	bl	23fe0f2 <_ZN5Print6printfEPKcz>
prevRead = reading;
 23fe1d8:	682b      	ldr	r3, [r5, #0]
delay(1000);
 23fe1da:	f44f 707a 	mov.w	r0, #1000	; 0x3e8
prevRead = reading;
 23fe1de:	6033      	str	r3, [r6, #0]
delay(1000);
 23fe1e0:	f000 ffec 	bl	23ff1bc <delay>
if(reading > 7){
 23fe1e4:	682b      	ldr	r3, [r5, #0]
 23fe1e6:	2b07      	cmp	r3, #7
 23fe1e8:	dd11      	ble.n	23fe20e <loop+0x7a>
  Serial.printf("yellow");
 23fe1ea:	f001 f973 	bl	23ff4d4 <_Z16_fetch_usbserialv>
 23fe1ee:	490e      	ldr	r1, [pc, #56]	; (23fe228 <loop+0x94>)
 23fe1f0:	f7ff ff7f 	bl	23fe0f2 <_ZN5Print6printfEPKcz>
    pixel.setPixelColor(i,yellow);
 23fe1f4:	4f0d      	ldr	r7, [pc, #52]	; (23fe22c <loop+0x98>)
 23fe1f6:	4e0a      	ldr	r6, [pc, #40]	; (23fe220 <loop+0x8c>)
 23fe1f8:	b2a1      	uxth	r1, r4
 23fe1fa:	463a      	mov	r2, r7
 23fe1fc:	4630      	mov	r0, r6
 23fe1fe:	f000 f9f7 	bl	23fe5f0 <_ZN17Adafruit_NeoPixel13setPixelColorEtm>
  for(int i = 0; i <PIXELCOUNT; i++){
 23fe202:	3401      	adds	r4, #1
    pixel.show();
 23fe204:	4630      	mov	r0, r6
 23fe206:	f000 f8e9 	bl	23fe3dc <_ZN17Adafruit_NeoPixel4showEv>
  for(int i = 0; i <PIXELCOUNT; i++){
 23fe20a:	2c0c      	cmp	r4, #12
 23fe20c:	d1f4      	bne.n	23fe1f8 <loop+0x64>
if(reading<7){
 23fe20e:	682b      	ldr	r3, [r5, #0]
 23fe210:	2b06      	cmp	r3, #6
 23fe212:	ddcd      	ble.n	23fe1b0 <loop+0x1c>
  }
}

}
 23fe214:	bdf8      	pop	{r3, r4, r5, r6, r7, pc}
 23fe216:	bf00      	nop
 23fe218:	1007ae7c 	.word	0x1007ae7c
 23fe21c:	1007ae78 	.word	0x1007ae78
 23fe220:	1007ae60 	.word	0x1007ae60
 23fe224:	023ffd20 	.word	0x023ffd20
 23fe228:	023ffd2c 	.word	0x023ffd2c
 23fe22c:	00ffff00 	.word	0x00ffff00

023fe230 <_GLOBAL__sub_I_reading>:
              error_(SYSTEM_ERROR_NONE) {
 23fe230:	2200      	movs	r2, #0
 23fe232:	4b11      	ldr	r3, [pc, #68]	; (23fe278 <_GLOBAL__sub_I_reading+0x48>)
 23fe234:	b510      	push	{r4, lr}
 23fe236:	e9c3 2200 	strd	r2, r2, [r3]
    SleepResult() {}
 23fe23a:	f5a2 3280 	sub.w	r2, r2, #65536	; 0x10000
        set_system_mode(mode);
 23fe23e:	2002      	movs	r0, #2
    SleepResult() {}
 23fe240:	609a      	str	r2, [r3, #8]
        set_system_mode(mode);
 23fe242:	f000 fcd1 	bl	23febe8 <set_system_mode>

template <hal_spi_interface_t Interface>
class SpiProxy {
public:
    static SPIClass& instance() {
        static SPIClass instance(Interface);
 23fe246:	4c0d      	ldr	r4, [pc, #52]	; (23fe27c <_GLOBAL__sub_I_reading+0x4c>)
 23fe248:	e8d4 3f8f 	ldab	r3, [r4]
 23fe24c:	07db      	lsls	r3, r3, #31
 23fe24e:	d40a      	bmi.n	23fe266 <_GLOBAL__sub_I_reading+0x36>
 23fe250:	4620      	mov	r0, r4
 23fe252:	f7ff ff46 	bl	23fe0e2 <__cxa_guard_acquire>
 23fe256:	b130      	cbz	r0, 23fe266 <_GLOBAL__sub_I_reading+0x36>
 23fe258:	2101      	movs	r1, #1
 23fe25a:	4809      	ldr	r0, [pc, #36]	; (23fe280 <_GLOBAL__sub_I_reading+0x50>)
 23fe25c:	f000 fe66 	bl	23fef2c <_ZN8SPIClassC1E19hal_spi_interface_t>
 23fe260:	4620      	mov	r0, r4
 23fe262:	f7ff ff43 	bl	23fe0ec <__cxa_guard_release>
 23fe266:	e8bd 4010 	ldmia.w	sp!, {r4, lr}
Adafruit_NeoPixel pixel(PIXELCOUNT, SPI1, WS2812B);
 23fe26a:	2302      	movs	r3, #2
 23fe26c:	210c      	movs	r1, #12
 23fe26e:	4a04      	ldr	r2, [pc, #16]	; (23fe280 <_GLOBAL__sub_I_reading+0x50>)
 23fe270:	4804      	ldr	r0, [pc, #16]	; (23fe284 <_GLOBAL__sub_I_reading+0x54>)
 23fe272:	f000 b83e 	b.w	23fe2f2 <_ZN17Adafruit_NeoPixelC1EtR8SPIClassh>
 23fe276:	bf00      	nop
 23fe278:	1007ae54 	.word	0x1007ae54
 23fe27c:	1007ae48 	.word	0x1007ae48
 23fe280:	1007ae4c 	.word	0x1007ae4c
 23fe284:	1007ae60 	.word	0x1007ae60

023fe288 <_ZNK5spark6Logger5errorEPKcz>:
    va_start(args, fmt);
    log(LOG_LEVEL_WARN, fmt, args);
    va_end(args);
}

inline void spark::Logger::error(const char *fmt, ...) const {
 23fe288:	b40e      	push	{r1, r2, r3}
}

inline void spark::Logger::log(LogLevel level, const char *fmt, va_list args) const {
    LogAttributes attr;
    attr.size = sizeof(LogAttributes);
    attr.flags = 0;
 23fe28a:	f04f 0c20 	mov.w	ip, #32
 23fe28e:	2300      	movs	r3, #0
inline void spark::Logger::error(const char *fmt, ...) const {
 23fe290:	b500      	push	{lr}
 23fe292:	b08c      	sub	sp, #48	; 0x30
 23fe294:	aa0d      	add	r2, sp, #52	; 0x34
 23fe296:	f852 1b04 	ldr.w	r1, [r2], #4
    attr.flags = 0;
 23fe29a:	e9cd c304 	strd	ip, r3, [sp, #16]
    log_message_v(level, name_, &attr, nullptr, fmt, args);
 23fe29e:	e9cd 1200 	strd	r1, r2, [sp]
    va_start(args, fmt);
 23fe2a2:	9203      	str	r2, [sp, #12]
    log_message_v(level, name_, &attr, nullptr, fmt, args);
 23fe2a4:	6801      	ldr	r1, [r0, #0]
 23fe2a6:	aa04      	add	r2, sp, #16
 23fe2a8:	2032      	movs	r0, #50	; 0x32
 23fe2aa:	f000 fc8f 	bl	23febcc <log_message_v>
}
 23fe2ae:	b00c      	add	sp, #48	; 0x30
 23fe2b0:	f85d eb04 	ldr.w	lr, [sp], #4
 23fe2b4:	b003      	add	sp, #12
 23fe2b6:	4770      	bx	lr

023fe2b8 <_ZN17Adafruit_NeoPixel12updateLengthEt>:

uint8_t Adafruit_NeoPixel::getType() const {
    return type;
}

void Adafruit_NeoPixel::updateLength(uint16_t n) {
 23fe2b8:	b538      	push	{r3, r4, r5, lr}
 23fe2ba:	4604      	mov	r4, r0
  if (pixels) free(pixels); // Free existing data (if any)
 23fe2bc:	68c0      	ldr	r0, [r0, #12]
void Adafruit_NeoPixel::updateLength(uint16_t n) {
 23fe2be:	460d      	mov	r5, r1
  if (pixels) free(pixels); // Free existing data (if any)
 23fe2c0:	b108      	cbz	r0, 23fe2c6 <_ZN17Adafruit_NeoPixel12updateLengthEt+0xe>
 23fe2c2:	f000 fdb7 	bl	23fee34 <free>

  // Allocate new data -- note: ALL PIXELS ARE CLEARED
  numBytes = n * ((type == SK6812RGBW) ? 4 : 3);
 23fe2c6:	79a3      	ldrb	r3, [r4, #6]
 23fe2c8:	2b06      	cmp	r3, #6
 23fe2ca:	bf0c      	ite	eq
 23fe2cc:	2004      	moveq	r0, #4
 23fe2ce:	2003      	movne	r0, #3
 23fe2d0:	fb10 f005 	smulbb	r0, r0, r5
 23fe2d4:	b280      	uxth	r0, r0
 23fe2d6:	80a0      	strh	r0, [r4, #4]
  if ((pixels = (uint8_t *)malloc(numBytes))) {
 23fe2d8:	f000 fd9e 	bl	23fee18 <malloc>
 23fe2dc:	60e0      	str	r0, [r4, #12]
 23fe2de:	b128      	cbz	r0, 23fe2ec <_ZN17Adafruit_NeoPixel12updateLengthEt+0x34>
    memset(pixels, 0, numBytes);
 23fe2e0:	2100      	movs	r1, #0
 23fe2e2:	88a2      	ldrh	r2, [r4, #4]
 23fe2e4:	f001 fc75 	bl	23ffbd2 <memset>
    numLEDs = n;
 23fe2e8:	8065      	strh	r5, [r4, #2]
  } else {
    numLEDs = numBytes = 0;
  }
}
 23fe2ea:	bd38      	pop	{r3, r4, r5, pc}
    numLEDs = numBytes = 0;
 23fe2ec:	80a0      	strh	r0, [r4, #4]
 23fe2ee:	8060      	strh	r0, [r4, #2]
}
 23fe2f0:	e7fb      	b.n	23fe2ea <_ZN17Adafruit_NeoPixel12updateLengthEt+0x32>

023fe2f2 <_ZN17Adafruit_NeoPixelC1EtR8SPIClassh>:
Adafruit_NeoPixel::Adafruit_NeoPixel(uint16_t n, SPIClass& spi, uint8_t t) :
 23fe2f2:	b570      	push	{r4, r5, r6, lr}
  begun(false), type(t), brightness(0), pixels(NULL), endTime(0)
 23fe2f4:	2500      	movs	r5, #0
Adafruit_NeoPixel::Adafruit_NeoPixel(uint16_t n, SPIClass& spi, uint8_t t) :
 23fe2f6:	4604      	mov	r4, r0
 23fe2f8:	4616      	mov	r6, r2
  begun(false), type(t), brightness(0), pixels(NULL), endTime(0)
 23fe2fa:	e9c0 5503 	strd	r5, r5, [r0, #12]
 23fe2fe:	7005      	strb	r5, [r0, #0]
 23fe300:	7183      	strb	r3, [r0, #6]
 23fe302:	7205      	strb	r5, [r0, #8]
  updateLength(n);
 23fe304:	f7ff ffd8 	bl	23fe2b8 <_ZN17Adafruit_NeoPixel12updateLengthEt>
}
 23fe308:	4620      	mov	r0, r4
  spi_ = &spi;
 23fe30a:	6166      	str	r6, [r4, #20]
}
 23fe30c:	bd70      	pop	{r4, r5, r6, pc}
	...

023fe310 <_ZN17Adafruit_NeoPixel5beginEv>:

void Adafruit_NeoPixel::begin(void) {
 23fe310:	e92d 4ff7 	stmdb	sp!, {r0, r1, r2, r4, r5, r6, r7, r8, r9, sl, fp, lr}
#if (PLATFORM_ID == 32)
  if (getType() == WS2812B) {
 23fe314:	7983      	ldrb	r3, [r0, #6]
void Adafruit_NeoPixel::begin(void) {
 23fe316:	4604      	mov	r4, r0
  if (getType() == WS2812B) {
 23fe318:	2b02      	cmp	r3, #2
 23fe31a:	d14e      	bne.n	23fe3ba <_ZN17Adafruit_NeoPixel5beginEv+0xaa>
  // Prevent copying
  SPIClass(const SPIClass&) = delete;
  SPIClass& operator=(const SPIClass&) = delete;

  hal_spi_interface_t interface() const {
    return _spi;
 23fe31c:	6943      	ldr	r3, [r0, #20]
 23fe31e:	781b      	ldrb	r3, [r3, #0]
    if (spi_->interface() >= HAL_PLATFORM_SPI_NUM) {
 23fe320:	2b01      	cmp	r3, #1
 23fe322:	d906      	bls.n	23fe332 <_ZN17Adafruit_NeoPixel5beginEv+0x22>
      Log.error("SPI/SPI1 interface not defined!");
 23fe324:	4929      	ldr	r1, [pc, #164]	; (23fe3cc <_ZN17Adafruit_NeoPixel5beginEv+0xbc>)
 23fe326:	482a      	ldr	r0, [pc, #168]	; (23fe3d0 <_ZN17Adafruit_NeoPixel5beginEv+0xc0>)
 23fe328:	f7ff ffae 	bl	23fe288 <_ZNK5spark6Logger5errorEPKcz>
#else
  pinMode(pin, OUTPUT);
  digitalWrite(pin, LOW);
#endif // #if (PLATFORM_ID == 32)
  begun = true;
}
 23fe32c:	b003      	add	sp, #12
 23fe32e:	e8bd 8ff0 	ldmia.w	sp!, {r4, r5, r6, r7, r8, r9, sl, fp, pc}
      misoPin = MISO1;
 23fe332:	2b00      	cmp	r3, #0
 23fe334:	bf0c      	ite	eq
 23fe336:	f04f 0911 	moveq.w	r9, #17
 23fe33a:	f04f 0904 	movne.w	r9, #4
    PinMode sckPinMode = getPinMode(sckPin);
 23fe33e:	4648      	mov	r0, r9
      misoPin = MISO1;
 23fe340:	bf0c      	ite	eq
 23fe342:	2710      	moveq	r7, #16
 23fe344:	2703      	movne	r7, #3
    PinMode sckPinMode = getPinMode(sckPin);
 23fe346:	f001 faa1 	bl	23ff88c <getPinMode>
 23fe34a:	4606      	mov	r6, r0
    PinMode misoPinMode = getPinMode(misoPin);
 23fe34c:	4638      	mov	r0, r7
 23fe34e:	f001 fa9d 	bl	23ff88c <getPinMode>
    int sckValue = (sckPinMode == OUTPUT) ? digitalRead(sckPin) : 0;
 23fe352:	2e01      	cmp	r6, #1
    PinMode misoPinMode = getPinMode(misoPin);
 23fe354:	4605      	mov	r5, r0
    int sckValue = (sckPinMode == OUTPUT) ? digitalRead(sckPin) : 0;
 23fe356:	d133      	bne.n	23fe3c0 <_ZN17Adafruit_NeoPixel5beginEv+0xb0>
 23fe358:	4648      	mov	r0, r9
 23fe35a:	f001 fb01 	bl	23ff960 <digitalRead>
 23fe35e:	4682      	mov	sl, r0
    int misoValue = (misoPinMode == OUTPUT) ? digitalRead(misoPin) : 0;
 23fe360:	2d01      	cmp	r5, #1
 23fe362:	d130      	bne.n	23fe3c6 <_ZN17Adafruit_NeoPixel5beginEv+0xb6>
 23fe364:	4638      	mov	r0, r7
 23fe366:	f001 fafb 	bl	23ff960 <digitalRead>
 23fe36a:	4680      	mov	r8, r0
    spi_config.flags = (uint32_t)HAL_SPI_CONFIG_FLAG_MOSI_ONLY;
 23fe36c:	f04f 0b01 	mov.w	fp, #1
 23fe370:	4b18      	ldr	r3, [pc, #96]	; (23fe3d4 <_ZN17Adafruit_NeoPixel5beginEv+0xc4>)
 23fe372:	6960      	ldr	r0, [r4, #20]
 23fe374:	e9cd 3b00 	strd	r3, fp, [sp]
    hal_spi_begin_ext(spi_->interface(), SPI_MODE_MASTER, PIN_INVALID, &spi_config);
 23fe378:	22ff      	movs	r2, #255	; 0xff
 23fe37a:	466b      	mov	r3, sp
 23fe37c:	2100      	movs	r1, #0
 23fe37e:	7800      	ldrb	r0, [r0, #0]
 23fe380:	f000 fb7c 	bl	23fea7c <hal_spi_begin_ext>
    spi_->setClockSpeed(3125000); // DVOS 5.7.0 requires setClockSpeed() to be set after begin()
 23fe384:	465a      	mov	r2, fp
 23fe386:	4914      	ldr	r1, [pc, #80]	; (23fe3d8 <_ZN17Adafruit_NeoPixel5beginEv+0xc8>)
 23fe388:	6960      	ldr	r0, [r4, #20]
 23fe38a:	f000 fdf5 	bl	23fef78 <_ZN8SPIClass13setClockSpeedEjj>
    pinMode(sckPin, sckPinMode);
 23fe38e:	4631      	mov	r1, r6
 23fe390:	4648      	mov	r0, r9
 23fe392:	f001 fabb 	bl	23ff90c <pinMode>
    pinMode(misoPin, misoPinMode);
 23fe396:	4629      	mov	r1, r5
 23fe398:	4638      	mov	r0, r7
 23fe39a:	f001 fab7 	bl	23ff90c <pinMode>
    if (sckPinMode == OUTPUT) {
 23fe39e:	455e      	cmp	r6, fp
 23fe3a0:	d104      	bne.n	23fe3ac <_ZN17Adafruit_NeoPixel5beginEv+0x9c>
      digitalWrite(sckPin, sckValue);
 23fe3a2:	4648      	mov	r0, r9
 23fe3a4:	fa5f f18a 	uxtb.w	r1, sl
 23fe3a8:	f001 fac1 	bl	23ff92e <digitalWrite>
    if (misoPinMode == OUTPUT) {
 23fe3ac:	2d01      	cmp	r5, #1
 23fe3ae:	d104      	bne.n	23fe3ba <_ZN17Adafruit_NeoPixel5beginEv+0xaa>
      digitalWrite(misoPin, misoValue);
 23fe3b0:	4638      	mov	r0, r7
 23fe3b2:	fa5f f188 	uxtb.w	r1, r8
 23fe3b6:	f001 faba 	bl	23ff92e <digitalWrite>
  begun = true;
 23fe3ba:	2301      	movs	r3, #1
 23fe3bc:	7023      	strb	r3, [r4, #0]
 23fe3be:	e7b5      	b.n	23fe32c <_ZN17Adafruit_NeoPixel5beginEv+0x1c>
    int sckValue = (sckPinMode == OUTPUT) ? digitalRead(sckPin) : 0;
 23fe3c0:	f04f 0a00 	mov.w	sl, #0
 23fe3c4:	e7cc      	b.n	23fe360 <_ZN17Adafruit_NeoPixel5beginEv+0x50>
    int misoValue = (misoPinMode == OUTPUT) ? digitalRead(misoPin) : 0;
 23fe3c6:	f04f 0800 	mov.w	r8, #0
 23fe3ca:	e7cf      	b.n	23fe36c <_ZN17Adafruit_NeoPixel5beginEv+0x5c>
 23fe3cc:	023ffd33 	.word	0x023ffd33
 23fe3d0:	1007ae9c 	.word	0x1007ae9c
 23fe3d4:	000a0008 	.word	0x000a0008
 23fe3d8:	002faf08 	.word	0x002faf08

023fe3dc <_ZN17Adafruit_NeoPixel4showEv>:
        digitalWrite(p, LOW);
    }
}

void Adafruit_NeoPixel::show(void) {
  if(!pixels) return;
 23fe3dc:	68c3      	ldr	r3, [r0, #12]
 23fe3de:	2b00      	cmp	r3, #0
 23fe3e0:	f000 80fc 	beq.w	23fe5dc <_ZN17Adafruit_NeoPixel4showEv+0x200>
void Adafruit_NeoPixel::show(void) {
 23fe3e4:	b570      	push	{r4, r5, r6, lr}
    return type;
 23fe3e6:	7983      	ldrb	r3, [r0, #6]
 23fe3e8:	4604      	mov	r4, r0
  }

  __enable_irq();

#elif (PLATFORM_ID == 32)
  if (getType() != WS2812B) { // WS2812 WS2812B and WS2813 supported for P2
 23fe3ea:	2b02      	cmp	r3, #2
void Adafruit_NeoPixel::show(void) {
 23fe3ec:	b082      	sub	sp, #8
  if (getType() != WS2812B) { // WS2812 WS2812B and WS2813 supported for P2
 23fe3ee:	f040 80ef 	bne.w	23fe5d0 <_ZN17Adafruit_NeoPixel4showEv+0x1f4>
        resetOff = 20;
      } break;
  }

  constexpr uint8_t numBitsPerBit = 3; // How many SPI bits represent one neopixel bit
  uint32_t spiArraySize = (numBytes * numBitsPerBit) + resetOff + resetOff;
 23fe3f2:	8886      	ldrh	r6, [r0, #4]
 23fe3f4:	eb06 0646 	add.w	r6, r6, r6, lsl #1
 23fe3f8:	36f0      	adds	r6, #240	; 0xf0
  uint8_t* spiArray = NULL;
  spiArray = (uint8_t*) malloc(spiArraySize);
 23fe3fa:	4630      	mov	r0, r6
 23fe3fc:	f000 fd0c 	bl	23fee18 <malloc>

  if (spiArray == NULL) {
 23fe400:	4605      	mov	r5, r0
 23fe402:	2800      	cmp	r0, #0
 23fe404:	f000 80eb 	beq.w	23fe5de <_ZN17Adafruit_NeoPixel4showEv+0x202>
    Log.error("Not enough memory available!");
    return;
  }

  memset(spiArray, 0, spiArraySize);
 23fe408:	4632      	mov	r2, r6
 23fe40a:	2100      	movs	r1, #0
 23fe40c:	f001 fbe1 	bl	23ffbd2 <memset>
uint8_t *Adafruit_NeoPixel::getPixels(void) const {
  return pixels;
}

uint16_t Adafruit_NeoPixel::numPixels(void) const {
  return numLEDs;
 23fe410:	8862      	ldrh	r2, [r4, #2]
  for (int x = 0; x < numPixels(); x++) {
 23fe412:	2a00      	cmp	r2, #0
 23fe414:	f000 80c7 	beq.w	23fe5a6 <_ZN17Adafruit_NeoPixel4showEv+0x1ca>
 23fe418:	46ac      	mov	ip, r5
 23fe41a:	eb02 02c2 	add.w	r2, r2, r2, lsl #3
 23fe41e:	68e1      	ldr	r1, [r4, #12]
 23fe420:	442a      	add	r2, r5
      spiArray[(x*9)+(s*3)+0+resetOff] = ((0x80 & pixels[(x*3)+s])?(PIX_HI << 5):(PIX_LO << 5)) + ((0x40 & pixels[(x*3)+s])?(PIX_HI << 2):(PIX_LO << 2)) + ((0x20 & pixels[(x*3)+s])?(0b11):(0b10));
 23fe422:	f991 3000 	ldrsb.w	r3, [r1]
 23fe426:	7808      	ldrb	r0, [r1, #0]
 23fe428:	2b00      	cmp	r3, #0
 23fe42a:	bfb5      	itete	lt
 23fe42c:	f04f 0ed0 	movlt.w	lr, #208	; 0xd0
 23fe430:	f04f 0e90 	movge.w	lr, #144	; 0x90
 23fe434:	23d8      	movlt	r3, #216	; 0xd8
 23fe436:	2398      	movge	r3, #152	; 0x98
 23fe438:	f010 0f40 	tst.w	r0, #64	; 0x40
 23fe43c:	bf08      	it	eq
 23fe43e:	4673      	moveq	r3, lr
 23fe440:	f010 0f20 	tst.w	r0, #32
 23fe444:	bf14      	ite	ne
 23fe446:	2003      	movne	r0, #3
 23fe448:	2002      	moveq	r0, #2
 23fe44a:	4403      	add	r3, r0
 23fe44c:	f88c 3078 	strb.w	r3, [ip, #120]	; 0x78
      spiArray[(x*9)+(s*3)+1+resetOff] = 0 /* bit 7 always 0 */ + ((0x10 & pixels[(x*3)+s])?(PIX_HI << 4):(PIX_LO << 4)) + ((0x08 & pixels[(x*3)+s])?(PIX_HI << 1):(PIX_LO << 1)) + 1 /* bit 0 always 1 */;
 23fe450:	7808      	ldrb	r0, [r1, #0]
  for (int x = 0; x < numPixels(); x++) {
 23fe452:	f10c 0c09 	add.w	ip, ip, #9
      spiArray[(x*9)+(s*3)+1+resetOff] = 0 /* bit 7 always 0 */ + ((0x10 & pixels[(x*3)+s])?(PIX_HI << 4):(PIX_LO << 4)) + ((0x08 & pixels[(x*3)+s])?(PIX_HI << 1):(PIX_LO << 1)) + 1 /* bit 0 always 1 */;
 23fe456:	f000 0310 	and.w	r3, r0, #16
 23fe45a:	2b00      	cmp	r3, #0
 23fe45c:	bf15      	itete	ne
 23fe45e:	f04f 0e69 	movne.w	lr, #105	; 0x69
 23fe462:	f04f 0e49 	moveq.w	lr, #73	; 0x49
 23fe466:	236d      	movne	r3, #109	; 0x6d
 23fe468:	234d      	moveq	r3, #77	; 0x4d
 23fe46a:	f010 0f08 	tst.w	r0, #8
 23fe46e:	bf08      	it	eq
 23fe470:	4673      	moveq	r3, lr
 23fe472:	f88c 3070 	strb.w	r3, [ip, #112]	; 0x70
      spiArray[(x*9)+(s*3)+2+resetOff] = ((0x04 & pixels[(x*3)+s])?(0b10 << 6):(0b00 << 6)) + ((0x02 & pixels[(x*3)+s])?(PIX_HI << 3):(PIX_LO << 3)) + ((0x01 & pixels[(x*3)+s])?(PIX_HI):(PIX_LO));
 23fe476:	780b      	ldrb	r3, [r1, #0]
  for (int x = 0; x < numPixels(); x++) {
 23fe478:	3103      	adds	r1, #3
      spiArray[(x*9)+(s*3)+2+resetOff] = ((0x04 & pixels[(x*3)+s])?(0b10 << 6):(0b00 << 6)) + ((0x02 & pixels[(x*3)+s])?(PIX_HI << 3):(PIX_LO << 3)) + ((0x01 & pixels[(x*3)+s])?(PIX_HI):(PIX_LO));
 23fe47a:	f013 0f02 	tst.w	r3, #2
 23fe47e:	bf14      	ite	ne
 23fe480:	2030      	movne	r0, #48	; 0x30
 23fe482:	2020      	moveq	r0, #32
 23fe484:	f013 0f01 	tst.w	r3, #1
 23fe488:	bf0c      	ite	eq
 23fe48a:	f04f 0e04 	moveq.w	lr, #4
 23fe48e:	f04f 0e06 	movne.w	lr, #6
 23fe492:	015b      	lsls	r3, r3, #5
 23fe494:	f003 0380 	and.w	r3, r3, #128	; 0x80
 23fe498:	4403      	add	r3, r0
 23fe49a:	4473      	add	r3, lr
 23fe49c:	f88c 3071 	strb.w	r3, [ip, #113]	; 0x71
      spiArray[(x*9)+(s*3)+0+resetOff] = ((0x80 & pixels[(x*3)+s])?(PIX_HI << 5):(PIX_LO << 5)) + ((0x40 & pixels[(x*3)+s])?(PIX_HI << 2):(PIX_LO << 2)) + ((0x20 & pixels[(x*3)+s])?(0b11):(0b10));
 23fe4a0:	f911 0c02 	ldrsb.w	r0, [r1, #-2]
 23fe4a4:	f811 3c02 	ldrb.w	r3, [r1, #-2]
 23fe4a8:	2800      	cmp	r0, #0
 23fe4aa:	bfb5      	itete	lt
 23fe4ac:	f04f 0ed0 	movlt.w	lr, #208	; 0xd0
 23fe4b0:	f04f 0e90 	movge.w	lr, #144	; 0x90
 23fe4b4:	20d8      	movlt	r0, #216	; 0xd8
 23fe4b6:	2098      	movge	r0, #152	; 0x98
 23fe4b8:	f013 0f40 	tst.w	r3, #64	; 0x40
 23fe4bc:	bf08      	it	eq
 23fe4be:	4670      	moveq	r0, lr
 23fe4c0:	f013 0f20 	tst.w	r3, #32
 23fe4c4:	bf14      	ite	ne
 23fe4c6:	2303      	movne	r3, #3
 23fe4c8:	2302      	moveq	r3, #2
 23fe4ca:	4403      	add	r3, r0
 23fe4cc:	f88c 3072 	strb.w	r3, [ip, #114]	; 0x72
      spiArray[(x*9)+(s*3)+1+resetOff] = 0 /* bit 7 always 0 */ + ((0x10 & pixels[(x*3)+s])?(PIX_HI << 4):(PIX_LO << 4)) + ((0x08 & pixels[(x*3)+s])?(PIX_HI << 1):(PIX_LO << 1)) + 1 /* bit 0 always 1 */;
 23fe4d0:	f811 0c02 	ldrb.w	r0, [r1, #-2]
 23fe4d4:	f000 0310 	and.w	r3, r0, #16
 23fe4d8:	2b00      	cmp	r3, #0
 23fe4da:	bf15      	itete	ne
 23fe4dc:	f04f 0e69 	movne.w	lr, #105	; 0x69
 23fe4e0:	f04f 0e49 	moveq.w	lr, #73	; 0x49
 23fe4e4:	236d      	movne	r3, #109	; 0x6d
 23fe4e6:	234d      	moveq	r3, #77	; 0x4d
 23fe4e8:	f010 0f08 	tst.w	r0, #8
 23fe4ec:	bf08      	it	eq
 23fe4ee:	4673      	moveq	r3, lr
 23fe4f0:	f88c 3073 	strb.w	r3, [ip, #115]	; 0x73
      spiArray[(x*9)+(s*3)+2+resetOff] = ((0x04 & pixels[(x*3)+s])?(0b10 << 6):(0b00 << 6)) + ((0x02 & pixels[(x*3)+s])?(PIX_HI << 3):(PIX_LO << 3)) + ((0x01 & pixels[(x*3)+s])?(PIX_HI):(PIX_LO));
 23fe4f4:	f811 ec02 	ldrb.w	lr, [r1, #-2]
 23fe4f8:	f01e 0f02 	tst.w	lr, #2
 23fe4fc:	bf14      	ite	ne
 23fe4fe:	2030      	movne	r0, #48	; 0x30
 23fe500:	2020      	moveq	r0, #32
 23fe502:	f01e 0f01 	tst.w	lr, #1
 23fe506:	bf14      	ite	ne
 23fe508:	2306      	movne	r3, #6
 23fe50a:	2304      	moveq	r3, #4
 23fe50c:	ea4f 1e4e 	mov.w	lr, lr, lsl #5
 23fe510:	f00e 0e80 	and.w	lr, lr, #128	; 0x80
 23fe514:	4486      	add	lr, r0
 23fe516:	449e      	add	lr, r3
 23fe518:	f88c e074 	strb.w	lr, [ip, #116]	; 0x74
      spiArray[(x*9)+(s*3)+0+resetOff] = ((0x80 & pixels[(x*3)+s])?(PIX_HI << 5):(PIX_LO << 5)) + ((0x40 & pixels[(x*3)+s])?(PIX_HI << 2):(PIX_LO << 2)) + ((0x20 & pixels[(x*3)+s])?(0b11):(0b10));
 23fe51c:	f911 3c01 	ldrsb.w	r3, [r1, #-1]
 23fe520:	f811 0c01 	ldrb.w	r0, [r1, #-1]
 23fe524:	2b00      	cmp	r3, #0
 23fe526:	bfb5      	itete	lt
 23fe528:	f04f 0ed0 	movlt.w	lr, #208	; 0xd0
 23fe52c:	f04f 0e90 	movge.w	lr, #144	; 0x90
 23fe530:	23d8      	movlt	r3, #216	; 0xd8
 23fe532:	2398      	movge	r3, #152	; 0x98
 23fe534:	f010 0f40 	tst.w	r0, #64	; 0x40
 23fe538:	bf08      	it	eq
 23fe53a:	4673      	moveq	r3, lr
 23fe53c:	f010 0f20 	tst.w	r0, #32
 23fe540:	bf14      	ite	ne
 23fe542:	2003      	movne	r0, #3
 23fe544:	2002      	moveq	r0, #2
 23fe546:	4403      	add	r3, r0
 23fe548:	f88c 3075 	strb.w	r3, [ip, #117]	; 0x75
      spiArray[(x*9)+(s*3)+1+resetOff] = 0 /* bit 7 always 0 */ + ((0x10 & pixels[(x*3)+s])?(PIX_HI << 4):(PIX_LO << 4)) + ((0x08 & pixels[(x*3)+s])?(PIX_HI << 1):(PIX_LO << 1)) + 1 /* bit 0 always 1 */;
 23fe54c:	f811 0c01 	ldrb.w	r0, [r1, #-1]
 23fe550:	f000 0310 	and.w	r3, r0, #16
 23fe554:	2b00      	cmp	r3, #0
 23fe556:	bf15      	itete	ne
 23fe558:	f04f 0e69 	movne.w	lr, #105	; 0x69
 23fe55c:	f04f 0e49 	moveq.w	lr, #73	; 0x49
 23fe560:	236d      	movne	r3, #109	; 0x6d
 23fe562:	234d      	moveq	r3, #77	; 0x4d
 23fe564:	f010 0f08 	tst.w	r0, #8
 23fe568:	bf08      	it	eq
 23fe56a:	4673      	moveq	r3, lr
 23fe56c:	f88c 3076 	strb.w	r3, [ip, #118]	; 0x76
      spiArray[(x*9)+(s*3)+2+resetOff] = ((0x04 & pixels[(x*3)+s])?(0b10 << 6):(0b00 << 6)) + ((0x02 & pixels[(x*3)+s])?(PIX_HI << 3):(PIX_LO << 3)) + ((0x01 & pixels[(x*3)+s])?(PIX_HI):(PIX_LO));
 23fe570:	f811 0c01 	ldrb.w	r0, [r1, #-1]
 23fe574:	f010 0f02 	tst.w	r0, #2
 23fe578:	bf14      	ite	ne
 23fe57a:	f04f 0e30 	movne.w	lr, #48	; 0x30
 23fe57e:	f04f 0e20 	moveq.w	lr, #32
 23fe582:	0143      	lsls	r3, r0, #5
 23fe584:	f003 0380 	and.w	r3, r3, #128	; 0x80
 23fe588:	4473      	add	r3, lr
 23fe58a:	b2db      	uxtb	r3, r3
 23fe58c:	07c0      	lsls	r0, r0, #31
 23fe58e:	f103 0e06 	add.w	lr, r3, #6
 23fe592:	f103 0304 	add.w	r3, r3, #4
 23fe596:	bf4c      	ite	mi
 23fe598:	f88c e077 	strbmi.w	lr, [ip, #119]	; 0x77
 23fe59c:	f88c 3077 	strbpl.w	r3, [ip, #119]	; 0x77
  for (int x = 0; x < numPixels(); x++) {
 23fe5a0:	4594      	cmp	ip, r2
 23fe5a2:	f47f af3e 	bne.w	23fe422 <_ZN17Adafruit_NeoPixel4showEv+0x46>
  spi_->beginTransaction();
 23fe5a6:	6960      	ldr	r0, [r4, #20]
 23fe5a8:	f000 fcca 	bl	23fef40 <_ZN8SPIClass16beginTransactionEv>
  spi_->transfer(spiArray, nullptr, spiArraySize, nullptr);
 23fe5ac:	2200      	movs	r2, #0
 23fe5ae:	4633      	mov	r3, r6
 23fe5b0:	4629      	mov	r1, r5
 23fe5b2:	6960      	ldr	r0, [r4, #20]
 23fe5b4:	9200      	str	r2, [sp, #0]
 23fe5b6:	f000 fd11 	bl	23fefdc <_ZN8SPIClass8transferEPKvPvjPFvvE>
  spi_->endTransaction();
 23fe5ba:	6960      	ldr	r0, [r4, #20]
 23fe5bc:	f000 fcc3 	bl	23fef46 <_ZN8SPIClass14endTransactionEv>
  free(spiArray);
 23fe5c0:	4628      	mov	r0, r5
 23fe5c2:	f000 fc37 	bl	23fee34 <free>
#ifdef __cplusplus
extern "C" {
#endif

inline system_tick_t millis(void) { return HAL_Timer_Get_Milli_Seconds(); }
inline unsigned long micros(void) { return HAL_Timer_Get_Micro_Seconds(); }
 23fe5c6:	f000 f8fb 	bl	23fe7c0 <HAL_Timer_Get_Micro_Seconds>
  endTime = micros(); // Save EOD time for latch on next call
 23fe5ca:	6120      	str	r0, [r4, #16]
}
 23fe5cc:	b002      	add	sp, #8
 23fe5ce:	bd70      	pop	{r4, r5, r6, pc}
    Log.error("Pixel type not supported!");
 23fe5d0:	4904      	ldr	r1, [pc, #16]	; (23fe5e4 <_ZN17Adafruit_NeoPixel4showEv+0x208>)
    Log.error("Not enough memory available!");
 23fe5d2:	4805      	ldr	r0, [pc, #20]	; (23fe5e8 <_ZN17Adafruit_NeoPixel4showEv+0x20c>)
 23fe5d4:	f7ff fe58 	bl	23fe288 <_ZNK5spark6Logger5errorEPKcz>
}
 23fe5d8:	b002      	add	sp, #8
 23fe5da:	bd70      	pop	{r4, r5, r6, pc}
 23fe5dc:	4770      	bx	lr
    Log.error("Not enough memory available!");
 23fe5de:	4903      	ldr	r1, [pc, #12]	; (23fe5ec <_ZN17Adafruit_NeoPixel4showEv+0x210>)
 23fe5e0:	e7f7      	b.n	23fe5d2 <_ZN17Adafruit_NeoPixel4showEv+0x1f6>
 23fe5e2:	bf00      	nop
 23fe5e4:	023ffd54 	.word	0x023ffd54
 23fe5e8:	1007ae9c 	.word	0x1007ae9c
 23fe5ec:	023ffd70 	.word	0x023ffd70

023fe5f0 <_ZN17Adafruit_NeoPixel13setPixelColorEtm>:
  if(n < numLEDs) {
 23fe5f0:	8843      	ldrh	r3, [r0, #2]
void Adafruit_NeoPixel::setPixelColor(uint16_t n, uint32_t c) {
 23fe5f2:	b5f0      	push	{r4, r5, r6, r7, lr}
  if(n < numLEDs) {
 23fe5f4:	428b      	cmp	r3, r1
 23fe5f6:	d92d      	bls.n	23fe654 <_ZN17Adafruit_NeoPixel13setPixelColorEtm+0x64>
    if(brightness) { // See notes in setBrightness()
 23fe5f8:	7a06      	ldrb	r6, [r0, #8]
 23fe5fa:	f3c2 4307 	ubfx	r3, r2, #16, #8
 23fe5fe:	f3c2 2407 	ubfx	r4, r2, #8, #8
 23fe602:	b2d5      	uxtb	r5, r2
 23fe604:	b13e      	cbz	r6, 23fe616 <_ZN17Adafruit_NeoPixel13setPixelColorEtm+0x26>
      r = (r * brightness) >> 8;
 23fe606:	4373      	muls	r3, r6
      g = (g * brightness) >> 8;
 23fe608:	4374      	muls	r4, r6
      b = (b * brightness) >> 8;
 23fe60a:	4375      	muls	r5, r6
      r = (r * brightness) >> 8;
 23fe60c:	f3c3 2307 	ubfx	r3, r3, #8, #8
      g = (g * brightness) >> 8;
 23fe610:	f3c4 2407 	ubfx	r4, r4, #8, #8
      b = (b * brightness) >> 8;
 23fe614:	0a2d      	lsrs	r5, r5, #8
    uint8_t *p = &pixels[n * (type==SK6812RGBW?4:3)];
 23fe616:	f890 c006 	ldrb.w	ip, [r0, #6]
 23fe61a:	68c7      	ldr	r7, [r0, #12]
 23fe61c:	f1bc 0f06 	cmp.w	ip, #6
 23fe620:	bf0c      	ite	eq
 23fe622:	2604      	moveq	r6, #4
 23fe624:	2603      	movne	r6, #3
 23fe626:	434e      	muls	r6, r1
 23fe628:	f1ac 0c02 	sub.w	ip, ip, #2
 23fe62c:	19b9      	adds	r1, r7, r6
    switch(type) {
 23fe62e:	f1bc 0f06 	cmp.w	ip, #6
 23fe632:	d81d      	bhi.n	23fe670 <_ZN17Adafruit_NeoPixel13setPixelColorEtm+0x80>
 23fe634:	e8df f00c 	tbb	[pc, ip]
 23fe638:	04081c04 	.word	0x04081c04
 23fe63c:	040f      	.short	0x040f
 23fe63e:	04          	.byte	0x04
 23fe63f:	00          	.byte	0x00
          *p++ = g;
 23fe640:	55bc      	strb	r4, [r7, r6]
          *p++ = r;
 23fe642:	704b      	strb	r3, [r1, #1]
          *p = b;
 23fe644:	708d      	strb	r5, [r1, #2]
}
 23fe646:	e005      	b.n	23fe654 <_ZN17Adafruit_NeoPixel13setPixelColorEtm+0x64>
          *p++ = r;
 23fe648:	2bfe      	cmp	r3, #254	; 0xfe
 23fe64a:	bf28      	it	cs
 23fe64c:	23fe      	movcs	r3, #254	; 0xfe
 23fe64e:	55bb      	strb	r3, [r7, r6]
          *p++ = b;
 23fe650:	704d      	strb	r5, [r1, #1]
          *p = g;
 23fe652:	708c      	strb	r4, [r1, #2]
}
 23fe654:	bdf0      	pop	{r4, r5, r6, r7, pc}
          *p++ = r;
 23fe656:	55bb      	strb	r3, [r7, r6]
          *p++ = g;
 23fe658:	704c      	strb	r4, [r1, #1]
          *p++ = b;
 23fe65a:	708d      	strb	r5, [r1, #2]
          *p = brightness ? ((w * brightness) >> 8) : w;
 23fe65c:	7a03      	ldrb	r3, [r0, #8]
          uint8_t w = (uint8_t)(c >> 24);
 23fe65e:	0e12      	lsrs	r2, r2, #24
          *p = brightness ? ((w * brightness) >> 8) : w;
 23fe660:	b913      	cbnz	r3, 23fe668 <_ZN17Adafruit_NeoPixel13setPixelColorEtm+0x78>
          uint8_t w = (uint8_t)(c >> 24);
 23fe662:	b2d2      	uxtb	r2, r2
          *p = brightness ? ((w * brightness) >> 8) : w;
 23fe664:	70ca      	strb	r2, [r1, #3]
        } break;
 23fe666:	e7f5      	b.n	23fe654 <_ZN17Adafruit_NeoPixel13setPixelColorEtm+0x64>
          *p = brightness ? ((w * brightness) >> 8) : w;
 23fe668:	435a      	muls	r2, r3
 23fe66a:	f3c2 2207 	ubfx	r2, r2, #8, #8
 23fe66e:	e7f9      	b.n	23fe664 <_ZN17Adafruit_NeoPixel13setPixelColorEtm+0x74>
          *p++ = r;
 23fe670:	55bb      	strb	r3, [r7, r6]
          *p++ = g;
 23fe672:	704c      	strb	r4, [r1, #1]
 23fe674:	e7e6      	b.n	23fe644 <_ZN17Adafruit_NeoPixel13setPixelColorEtm+0x54>

023fe676 <_ZN17Adafruit_NeoPixel13setBrightnessEh>:
  // 8x8-bit multiply and taking the MSB.  'brightness' is a uint8_t,
  // adding 1 here may (intentionally) roll over...so 0 = max brightness
  // (color values are interpreted literally; no scaling), 1 = min
  // brightness (off), 255 = just below max brightness.
  uint8_t newBrightness = b + 1;
  if(newBrightness != brightness) { // Compare against prior value
 23fe676:	7a03      	ldrb	r3, [r0, #8]
  uint8_t newBrightness = b + 1;
 23fe678:	1c4a      	adds	r2, r1, #1
 23fe67a:	b2d2      	uxtb	r2, r2
  if(newBrightness != brightness) { // Compare against prior value
 23fe67c:	4293      	cmp	r3, r2
void Adafruit_NeoPixel::setBrightness(uint8_t b) {
 23fe67e:	b570      	push	{r4, r5, r6, lr}
  if(newBrightness != brightness) { // Compare against prior value
 23fe680:	d01f      	beq.n	23fe6c2 <_ZN17Adafruit_NeoPixel13setBrightnessEh+0x4c>
    // Brightness has changed -- re-scale existing data in RAM
    uint8_t  c,
            *ptr           = pixels,
             oldBrightness = brightness - 1; // De-wrap old brightness value
 23fe682:	3b01      	subs	r3, #1
    uint16_t scale;
    if(oldBrightness == 0) scale = 0; // Avoid /0
 23fe684:	f013 03ff 	ands.w	r3, r3, #255	; 0xff
            *ptr           = pixels,
 23fe688:	68c4      	ldr	r4, [r0, #12]
    if(oldBrightness == 0) scale = 0; // Avoid /0
 23fe68a:	d00c      	beq.n	23fe6a6 <_ZN17Adafruit_NeoPixel13setBrightnessEh+0x30>
    else if(b == 255) scale = 65535 / oldBrightness;
 23fe68c:	29ff      	cmp	r1, #255	; 0xff
 23fe68e:	bf0f      	iteee	eq
 23fe690:	f64f 71ff 	movweq	r1, #65535	; 0xffff
    else scale = (((uint16_t)newBrightness << 8) - 1) / oldBrightness;
 23fe694:	0211      	lslne	r1, r2, #8
 23fe696:	f101 31ff 	addne.w	r1, r1, #4294967295
 23fe69a:	fbb1 f3f3 	udivne	r3, r1, r3
    else if(b == 255) scale = 65535 / oldBrightness;
 23fe69e:	bf0c      	ite	eq
 23fe6a0:	fbb1 f3f3 	udiveq	r3, r1, r3
    else scale = (((uint16_t)newBrightness << 8) - 1) / oldBrightness;
 23fe6a4:	b29b      	uxthne	r3, r3
            *ptr           = pixels,
 23fe6a6:	4625      	mov	r5, r4
    for(uint16_t i=0; i<numBytes; i++) {
 23fe6a8:	8886      	ldrh	r6, [r0, #4]
 23fe6aa:	1b29      	subs	r1, r5, r4
 23fe6ac:	b289      	uxth	r1, r1
 23fe6ae:	428e      	cmp	r6, r1
 23fe6b0:	d906      	bls.n	23fe6c0 <_ZN17Adafruit_NeoPixel13setBrightnessEh+0x4a>
      c      = *ptr;
      *ptr++ = (c * scale) >> 8;
 23fe6b2:	7829      	ldrb	r1, [r5, #0]
 23fe6b4:	4359      	muls	r1, r3
 23fe6b6:	f3c1 2107 	ubfx	r1, r1, #8, #8
 23fe6ba:	f805 1b01 	strb.w	r1, [r5], #1
    for(uint16_t i=0; i<numBytes; i++) {
 23fe6be:	e7f3      	b.n	23fe6a8 <_ZN17Adafruit_NeoPixel13setBrightnessEh+0x32>
    }
    brightness = newBrightness;
 23fe6c0:	7202      	strb	r2, [r0, #8]
  }
}
 23fe6c2:	bd70      	pop	{r4, r5, r6, pc}

023fe6c4 <netdb_freeaddrinfo>:

DYNALIB_BEGIN(hal_netdb)

DYNALIB_FN(0, hal_netdb, netdb_gethostbyname, struct hostent*(const char*))
DYNALIB_FN(1, hal_netdb, netdb_gethostbyname_r, int(const char*, struct hostent*, char*, size_t, struct hostent**, int*))
DYNALIB_FN(2, hal_netdb, netdb_freeaddrinfo, void(struct addrinfo*))
 23fe6c4:	b509      	push	{r0, r3, lr}
 23fe6c6:	4804      	ldr	r0, [pc, #16]	; (23fe6d8 <netdb_freeaddrinfo+0x14>)
 23fe6c8:	6800      	ldr	r0, [r0, #0]
 23fe6ca:	4b04      	ldr	r3, [pc, #16]	; (23fe6dc <netdb_freeaddrinfo+0x18>)
 23fe6cc:	4403      	add	r3, r0
 23fe6ce:	681b      	ldr	r3, [r3, #0]
 23fe6d0:	689b      	ldr	r3, [r3, #8]
 23fe6d2:	9302      	str	r3, [sp, #8]
 23fe6d4:	bd09      	pop	{r0, r3, pc}
 23fe6d6:	0000      	.short	0x0000
 23fe6d8:	1007add8 	.word	0x1007add8
 23fe6dc:	00000050 	.word	0x00000050

023fe6e0 <netdb_getaddrinfo>:
DYNALIB_FN(3, hal_netdb, netdb_getaddrinfo, int(const char*, const char*, const struct addrinfo*, struct addrinfo**))
 23fe6e0:	b509      	push	{r0, r3, lr}
 23fe6e2:	4804      	ldr	r0, [pc, #16]	; (23fe6f4 <netdb_getaddrinfo+0x14>)
 23fe6e4:	6800      	ldr	r0, [r0, #0]
 23fe6e6:	4b04      	ldr	r3, [pc, #16]	; (23fe6f8 <netdb_getaddrinfo+0x18>)
 23fe6e8:	4403      	add	r3, r0
 23fe6ea:	681b      	ldr	r3, [r3, #0]
 23fe6ec:	68db      	ldr	r3, [r3, #12]
 23fe6ee:	9302      	str	r3, [sp, #8]
 23fe6f0:	bd09      	pop	{r0, r3, pc}
 23fe6f2:	0000      	.short	0x0000
 23fe6f4:	1007add8 	.word	0x1007add8
 23fe6f8:	00000050 	.word	0x00000050

023fe6fc <hal_pin_validate_function>:
// GNINRAW

DYNALIB_BEGIN(hal_gpio)

DYNALIB_FN(0, hal_gpio, hal_pin_map, hal_pin_info_t*(void))
DYNALIB_FN(1, hal_gpio, hal_pin_validate_function, PinFunction(hal_pin_t, PinFunction))
 23fe6fc:	b509      	push	{r0, r3, lr}
 23fe6fe:	4804      	ldr	r0, [pc, #16]	; (23fe710 <hal_pin_validate_function+0x14>)
 23fe700:	6800      	ldr	r0, [r0, #0]
 23fe702:	4b04      	ldr	r3, [pc, #16]	; (23fe714 <hal_pin_validate_function+0x18>)
 23fe704:	4403      	add	r3, r0
 23fe706:	681b      	ldr	r3, [r3, #0]
 23fe708:	685b      	ldr	r3, [r3, #4]
 23fe70a:	9302      	str	r3, [sp, #8]
 23fe70c:	bd09      	pop	{r0, r3, pc}
 23fe70e:	0000      	.short	0x0000
 23fe710:	1007add8 	.word	0x1007add8
 23fe714:	00000014 	.word	0x00000014

023fe718 <hal_gpio_mode>:
DYNALIB_FN(2, hal_gpio, hal_gpio_mode, void(hal_pin_t, PinMode))
 23fe718:	b509      	push	{r0, r3, lr}
 23fe71a:	4804      	ldr	r0, [pc, #16]	; (23fe72c <hal_gpio_mode+0x14>)
 23fe71c:	6800      	ldr	r0, [r0, #0]
 23fe71e:	4b04      	ldr	r3, [pc, #16]	; (23fe730 <hal_gpio_mode+0x18>)
 23fe720:	4403      	add	r3, r0
 23fe722:	681b      	ldr	r3, [r3, #0]
 23fe724:	689b      	ldr	r3, [r3, #8]
 23fe726:	9302      	str	r3, [sp, #8]
 23fe728:	bd09      	pop	{r0, r3, pc}
 23fe72a:	0000      	.short	0x0000
 23fe72c:	1007add8 	.word	0x1007add8
 23fe730:	00000014 	.word	0x00000014

023fe734 <hal_gpio_get_mode>:
DYNALIB_FN(3, hal_gpio, hal_gpio_get_mode, PinMode(hal_pin_t))
 23fe734:	b509      	push	{r0, r3, lr}
 23fe736:	4804      	ldr	r0, [pc, #16]	; (23fe748 <hal_gpio_get_mode+0x14>)
 23fe738:	6800      	ldr	r0, [r0, #0]
 23fe73a:	4b04      	ldr	r3, [pc, #16]	; (23fe74c <hal_gpio_get_mode+0x18>)
 23fe73c:	4403      	add	r3, r0
 23fe73e:	681b      	ldr	r3, [r3, #0]
 23fe740:	68db      	ldr	r3, [r3, #12]
 23fe742:	9302      	str	r3, [sp, #8]
 23fe744:	bd09      	pop	{r0, r3, pc}
 23fe746:	0000      	.short	0x0000
 23fe748:	1007add8 	.word	0x1007add8
 23fe74c:	00000014 	.word	0x00000014

023fe750 <hal_gpio_write>:
DYNALIB_FN(4, hal_gpio, hal_gpio_write, void(hal_pin_t, uint8_t))
 23fe750:	b509      	push	{r0, r3, lr}
 23fe752:	4804      	ldr	r0, [pc, #16]	; (23fe764 <hal_gpio_write+0x14>)
 23fe754:	6800      	ldr	r0, [r0, #0]
 23fe756:	4b04      	ldr	r3, [pc, #16]	; (23fe768 <hal_gpio_write+0x18>)
 23fe758:	4403      	add	r3, r0
 23fe75a:	681b      	ldr	r3, [r3, #0]
 23fe75c:	691b      	ldr	r3, [r3, #16]
 23fe75e:	9302      	str	r3, [sp, #8]
 23fe760:	bd09      	pop	{r0, r3, pc}
 23fe762:	0000      	.short	0x0000
 23fe764:	1007add8 	.word	0x1007add8
 23fe768:	00000014 	.word	0x00000014

023fe76c <hal_gpio_read>:
DYNALIB_FN(5, hal_gpio, hal_gpio_read, int32_t(hal_pin_t))
 23fe76c:	b509      	push	{r0, r3, lr}
 23fe76e:	4804      	ldr	r0, [pc, #16]	; (23fe780 <hal_gpio_read+0x14>)
 23fe770:	6800      	ldr	r0, [r0, #0]
 23fe772:	4b04      	ldr	r3, [pc, #16]	; (23fe784 <hal_gpio_read+0x18>)
 23fe774:	4403      	add	r3, r0
 23fe776:	681b      	ldr	r3, [r3, #0]
 23fe778:	695b      	ldr	r3, [r3, #20]
 23fe77a:	9302      	str	r3, [sp, #8]
 23fe77c:	bd09      	pop	{r0, r3, pc}
 23fe77e:	0000      	.short	0x0000
 23fe780:	1007add8 	.word	0x1007add8
 23fe784:	00000014 	.word	0x00000014

023fe788 <hal_adc_read>:
DYNALIB_FN(8, hal_gpio, hal_interrupt_enable_all, void(void))
DYNALIB_FN(9, hal_gpio, hal_interrupt_disable_all, void(void))

DYNALIB_FN(10, hal_gpio, HAL_DAC_Write, void(hal_pin_t, uint16_t))
DYNALIB_FN(11, hal_gpio, hal_adc_set_sample_time, void(uint8_t))
DYNALIB_FN(12, hal_gpio, hal_adc_read, int32_t(uint16_t))
 23fe788:	b509      	push	{r0, r3, lr}
 23fe78a:	4804      	ldr	r0, [pc, #16]	; (23fe79c <hal_adc_read+0x14>)
 23fe78c:	6800      	ldr	r0, [r0, #0]
 23fe78e:	4b04      	ldr	r3, [pc, #16]	; (23fe7a0 <hal_adc_read+0x18>)
 23fe790:	4403      	add	r3, r0
 23fe792:	681b      	ldr	r3, [r3, #0]
 23fe794:	6b1b      	ldr	r3, [r3, #48]	; 0x30
 23fe796:	9302      	str	r3, [sp, #8]
 23fe798:	bd09      	pop	{r0, r3, pc}
 23fe79a:	0000      	.short	0x0000
 23fe79c:	1007add8 	.word	0x1007add8
 23fe7a0:	00000014 	.word	0x00000014

023fe7a4 <HAL_RNG_GetRandomNumber>:

DYNALIB_BEGIN(hal)

#if PLATFORM_ID > PLATFORM_GCC
DYNALIB_FN(0, hal, HAL_RNG_Configuration, void(void))
DYNALIB_FN(1, hal, HAL_RNG_GetRandomNumber, uint32_t(void))
 23fe7a4:	b509      	push	{r0, r3, lr}
 23fe7a6:	4804      	ldr	r0, [pc, #16]	; (23fe7b8 <HAL_RNG_GetRandomNumber+0x14>)
 23fe7a8:	6800      	ldr	r0, [r0, #0]
 23fe7aa:	4b04      	ldr	r3, [pc, #16]	; (23fe7bc <HAL_RNG_GetRandomNumber+0x18>)
 23fe7ac:	4403      	add	r3, r0
 23fe7ae:	681b      	ldr	r3, [r3, #0]
 23fe7b0:	685b      	ldr	r3, [r3, #4]
 23fe7b2:	9302      	str	r3, [sp, #8]
 23fe7b4:	bd09      	pop	{r0, r3, pc}
 23fe7b6:	0000      	.short	0x0000
 23fe7b8:	1007add8 	.word	0x1007add8
 23fe7bc:	00000000 	.word	0x00000000

023fe7c0 <HAL_Timer_Get_Micro_Seconds>:
#define BASE_IDX 0
#endif // PLATFORM_ID > PLATFORM_GCC

DYNALIB_FN(BASE_IDX + 0, hal, HAL_Delay_Milliseconds, void(uint32_t))
DYNALIB_FN(BASE_IDX + 1, hal, HAL_Delay_Microseconds, void(uint32_t))
DYNALIB_FN(BASE_IDX + 2, hal, HAL_Timer_Get_Micro_Seconds, system_tick_t(void))
 23fe7c0:	b509      	push	{r0, r3, lr}
 23fe7c2:	4804      	ldr	r0, [pc, #16]	; (23fe7d4 <HAL_Timer_Get_Micro_Seconds+0x14>)
 23fe7c4:	6800      	ldr	r0, [r0, #0]
 23fe7c6:	4b04      	ldr	r3, [pc, #16]	; (23fe7d8 <HAL_Timer_Get_Micro_Seconds+0x18>)
 23fe7c8:	4403      	add	r3, r0
 23fe7ca:	681b      	ldr	r3, [r3, #0]
 23fe7cc:	691b      	ldr	r3, [r3, #16]
 23fe7ce:	9302      	str	r3, [sp, #8]
 23fe7d0:	bd09      	pop	{r0, r3, pc}
 23fe7d2:	0000      	.short	0x0000
 23fe7d4:	1007add8 	.word	0x1007add8
 23fe7d8:	00000000 	.word	0x00000000

023fe7dc <HAL_Timer_Get_Milli_Seconds>:
DYNALIB_FN(BASE_IDX + 3, hal, HAL_Timer_Get_Milli_Seconds, system_tick_t(void))
 23fe7dc:	b509      	push	{r0, r3, lr}
 23fe7de:	4804      	ldr	r0, [pc, #16]	; (23fe7f0 <HAL_Timer_Get_Milli_Seconds+0x14>)
 23fe7e0:	6800      	ldr	r0, [r0, #0]
 23fe7e2:	4b04      	ldr	r3, [pc, #16]	; (23fe7f4 <HAL_Timer_Get_Milli_Seconds+0x18>)
 23fe7e4:	4403      	add	r3, r0
 23fe7e6:	681b      	ldr	r3, [r3, #0]
 23fe7e8:	695b      	ldr	r3, [r3, #20]
 23fe7ea:	9302      	str	r3, [sp, #8]
 23fe7ec:	bd09      	pop	{r0, r3, pc}
 23fe7ee:	0000      	.short	0x0000
 23fe7f0:	1007add8 	.word	0x1007add8
 23fe7f4:	00000000 	.word	0x00000000

023fe7f8 <hal_timer_millis>:
DYNALIB_FN(BASE_IDX + 17, hal, HAL_EEPROM_Clear, void(void))
DYNALIB_FN(BASE_IDX + 18, hal, HAL_EEPROM_Has_Pending_Erase, bool(void))
DYNALIB_FN(BASE_IDX + 19, hal, HAL_EEPROM_Perform_Pending_Erase, void(void))
DYNALIB_FN(BASE_IDX + 20, hal, hal_rtc_time_is_valid, bool(void*))

DYNALIB_FN(BASE_IDX + 21, hal, hal_timer_millis, uint64_t(void*))
 23fe7f8:	b509      	push	{r0, r3, lr}
 23fe7fa:	4804      	ldr	r0, [pc, #16]	; (23fe80c <hal_timer_millis+0x14>)
 23fe7fc:	6800      	ldr	r0, [r0, #0]
 23fe7fe:	4b04      	ldr	r3, [pc, #16]	; (23fe810 <hal_timer_millis+0x18>)
 23fe800:	4403      	add	r3, r0
 23fe802:	681b      	ldr	r3, [r3, #0]
 23fe804:	6ddb      	ldr	r3, [r3, #92]	; 0x5c
 23fe806:	9302      	str	r3, [sp, #8]
 23fe808:	bd09      	pop	{r0, r3, pc}
 23fe80a:	0000      	.short	0x0000
 23fe80c:	1007add8 	.word	0x1007add8
 23fe810:	00000000 	.word	0x00000000

023fe814 <os_mutex_recursive_create>:
DYNALIB_FN(13, hal_concurrent, os_mutex_destroy, int(os_mutex_t))
DYNALIB_FN(14, hal_concurrent, os_mutex_lock, int(os_mutex_t))
DYNALIB_FN(15, hal_concurrent, os_mutex_trylock, int(os_mutex_t))
DYNALIB_FN(16, hal_concurrent, os_mutex_unlock, int(os_mutex_t))

DYNALIB_FN(17, hal_concurrent, os_mutex_recursive_create, int(os_mutex_recursive_t*))
 23fe814:	b509      	push	{r0, r3, lr}
 23fe816:	4804      	ldr	r0, [pc, #16]	; (23fe828 <os_mutex_recursive_create+0x14>)
 23fe818:	6800      	ldr	r0, [r0, #0]
 23fe81a:	4b04      	ldr	r3, [pc, #16]	; (23fe82c <os_mutex_recursive_create+0x18>)
 23fe81c:	4403      	add	r3, r0
 23fe81e:	681b      	ldr	r3, [r3, #0]
 23fe820:	6c5b      	ldr	r3, [r3, #68]	; 0x44
 23fe822:	9302      	str	r3, [sp, #8]
 23fe824:	bd09      	pop	{r0, r3, pc}
 23fe826:	0000      	.short	0x0000
 23fe828:	1007add8 	.word	0x1007add8
 23fe82c:	00000030 	.word	0x00000030

023fe830 <inet_inet_ntop>:
DYNALIB_FN(0, hal_inet, inet_inet_addr, in_addr_t(const char*))
DYNALIB_FN(1, hal_inet, inet_inet_aton, int(const char*, struct in_addr*))
DYNALIB_FN(2, hal_inet, inet_inet_network, in_addr_t(const char*))
DYNALIB_FN(3, hal_inet, inet_inet_ntoa, char*(struct in_addr))
DYNALIB_FN(4, hal_inet, inet_inet_ntoa_r, char*(struct in_addr, char*, socklen_t))
DYNALIB_FN(5, hal_inet, inet_inet_ntop, const char*(int, const void*, char*, socklen_t))
 23fe830:	b509      	push	{r0, r3, lr}
 23fe832:	4804      	ldr	r0, [pc, #16]	; (23fe844 <inet_inet_ntop+0x14>)
 23fe834:	6800      	ldr	r0, [r0, #0]
 23fe836:	4b04      	ldr	r3, [pc, #16]	; (23fe848 <inet_inet_ntop+0x18>)
 23fe838:	4403      	add	r3, r0
 23fe83a:	681b      	ldr	r3, [r3, #0]
 23fe83c:	695b      	ldr	r3, [r3, #20]
 23fe83e:	9302      	str	r3, [sp, #8]
 23fe840:	bd09      	pop	{r0, r3, pc}
 23fe842:	0000      	.short	0x0000
 23fe844:	1007add8 	.word	0x1007add8
 23fe848:	0000004c 	.word	0x0000004c

023fe84c <hal_usart_write>:
#endif

DYNALIB_FN(BASE_IDX + 0, hal_usart, hal_usart_init, void(hal_usart_interface_t, hal_usart_ring_buffer_t*, hal_usart_ring_buffer_t*))
DYNALIB_FN(BASE_IDX + 1, hal_usart, hal_usart_begin, void(hal_usart_interface_t, uint32_t))
DYNALIB_FN(BASE_IDX + 2, hal_usart, hal_usart_end, void(hal_usart_interface_t))
DYNALIB_FN(BASE_IDX + 3, hal_usart, hal_usart_write, uint32_t(hal_usart_interface_t, uint8_t))
 23fe84c:	b509      	push	{r0, r3, lr}
 23fe84e:	4804      	ldr	r0, [pc, #16]	; (23fe860 <hal_usart_write+0x14>)
 23fe850:	6800      	ldr	r0, [r0, #0]
 23fe852:	4b04      	ldr	r3, [pc, #16]	; (23fe864 <hal_usart_write+0x18>)
 23fe854:	4403      	add	r3, r0
 23fe856:	681b      	ldr	r3, [r3, #0]
 23fe858:	68db      	ldr	r3, [r3, #12]
 23fe85a:	9302      	str	r3, [sp, #8]
 23fe85c:	bd09      	pop	{r0, r3, pc}
 23fe85e:	0000      	.short	0x0000
 23fe860:	1007add8 	.word	0x1007add8
 23fe864:	00000024 	.word	0x00000024

023fe868 <hal_usart_available>:
DYNALIB_FN(BASE_IDX + 4, hal_usart, hal_usart_available, int32_t(hal_usart_interface_t))
 23fe868:	b509      	push	{r0, r3, lr}
 23fe86a:	4804      	ldr	r0, [pc, #16]	; (23fe87c <hal_usart_available+0x14>)
 23fe86c:	6800      	ldr	r0, [r0, #0]
 23fe86e:	4b04      	ldr	r3, [pc, #16]	; (23fe880 <hal_usart_available+0x18>)
 23fe870:	4403      	add	r3, r0
 23fe872:	681b      	ldr	r3, [r3, #0]
 23fe874:	691b      	ldr	r3, [r3, #16]
 23fe876:	9302      	str	r3, [sp, #8]
 23fe878:	bd09      	pop	{r0, r3, pc}
 23fe87a:	0000      	.short	0x0000
 23fe87c:	1007add8 	.word	0x1007add8
 23fe880:	00000024 	.word	0x00000024

023fe884 <hal_usart_read>:
DYNALIB_FN(BASE_IDX + 5, hal_usart, hal_usart_read, int32_t(hal_usart_interface_t))
 23fe884:	b509      	push	{r0, r3, lr}
 23fe886:	4804      	ldr	r0, [pc, #16]	; (23fe898 <hal_usart_read+0x14>)
 23fe888:	6800      	ldr	r0, [r0, #0]
 23fe88a:	4b04      	ldr	r3, [pc, #16]	; (23fe89c <hal_usart_read+0x18>)
 23fe88c:	4403      	add	r3, r0
 23fe88e:	681b      	ldr	r3, [r3, #0]
 23fe890:	695b      	ldr	r3, [r3, #20]
 23fe892:	9302      	str	r3, [sp, #8]
 23fe894:	bd09      	pop	{r0, r3, pc}
 23fe896:	0000      	.short	0x0000
 23fe898:	1007add8 	.word	0x1007add8
 23fe89c:	00000024 	.word	0x00000024

023fe8a0 <hal_usart_peek>:
DYNALIB_FN(BASE_IDX + 6, hal_usart, hal_usart_peek, int32_t(hal_usart_interface_t))
 23fe8a0:	b509      	push	{r0, r3, lr}
 23fe8a2:	4804      	ldr	r0, [pc, #16]	; (23fe8b4 <hal_usart_peek+0x14>)
 23fe8a4:	6800      	ldr	r0, [r0, #0]
 23fe8a6:	4b04      	ldr	r3, [pc, #16]	; (23fe8b8 <hal_usart_peek+0x18>)
 23fe8a8:	4403      	add	r3, r0
 23fe8aa:	681b      	ldr	r3, [r3, #0]
 23fe8ac:	699b      	ldr	r3, [r3, #24]
 23fe8ae:	9302      	str	r3, [sp, #8]
 23fe8b0:	bd09      	pop	{r0, r3, pc}
 23fe8b2:	0000      	.short	0x0000
 23fe8b4:	1007add8 	.word	0x1007add8
 23fe8b8:	00000024 	.word	0x00000024

023fe8bc <hal_usart_flush>:
DYNALIB_FN(BASE_IDX + 7, hal_usart, hal_usart_flush, void(hal_usart_interface_t))
 23fe8bc:	b509      	push	{r0, r3, lr}
 23fe8be:	4804      	ldr	r0, [pc, #16]	; (23fe8d0 <hal_usart_flush+0x14>)
 23fe8c0:	6800      	ldr	r0, [r0, #0]
 23fe8c2:	4b04      	ldr	r3, [pc, #16]	; (23fe8d4 <hal_usart_flush+0x18>)
 23fe8c4:	4403      	add	r3, r0
 23fe8c6:	681b      	ldr	r3, [r3, #0]
 23fe8c8:	69db      	ldr	r3, [r3, #28]
 23fe8ca:	9302      	str	r3, [sp, #8]
 23fe8cc:	bd09      	pop	{r0, r3, pc}
 23fe8ce:	0000      	.short	0x0000
 23fe8d0:	1007add8 	.word	0x1007add8
 23fe8d4:	00000024 	.word	0x00000024

023fe8d8 <hal_usart_is_enabled>:
DYNALIB_FN(BASE_IDX + 8, hal_usart, hal_usart_is_enabled, bool(hal_usart_interface_t))
 23fe8d8:	b509      	push	{r0, r3, lr}
 23fe8da:	4804      	ldr	r0, [pc, #16]	; (23fe8ec <hal_usart_is_enabled+0x14>)
 23fe8dc:	6800      	ldr	r0, [r0, #0]
 23fe8de:	4b04      	ldr	r3, [pc, #16]	; (23fe8f0 <hal_usart_is_enabled+0x18>)
 23fe8e0:	4403      	add	r3, r0
 23fe8e2:	681b      	ldr	r3, [r3, #0]
 23fe8e4:	6a1b      	ldr	r3, [r3, #32]
 23fe8e6:	9302      	str	r3, [sp, #8]
 23fe8e8:	bd09      	pop	{r0, r3, pc}
 23fe8ea:	0000      	.short	0x0000
 23fe8ec:	1007add8 	.word	0x1007add8
 23fe8f0:	00000024 	.word	0x00000024

023fe8f4 <hal_usart_available_data_for_write>:
DYNALIB_FN(BASE_IDX + 9, hal_usart, hal_usart_half_duplex, void(hal_usart_interface_t, bool))
DYNALIB_FN(BASE_IDX + 10, hal_usart, hal_usart_available_data_for_write, int32_t(hal_usart_interface_t))
 23fe8f4:	b509      	push	{r0, r3, lr}
 23fe8f6:	4804      	ldr	r0, [pc, #16]	; (23fe908 <hal_usart_available_data_for_write+0x14>)
 23fe8f8:	6800      	ldr	r0, [r0, #0]
 23fe8fa:	4b04      	ldr	r3, [pc, #16]	; (23fe90c <hal_usart_available_data_for_write+0x18>)
 23fe8fc:	4403      	add	r3, r0
 23fe8fe:	681b      	ldr	r3, [r3, #0]
 23fe900:	6a9b      	ldr	r3, [r3, #40]	; 0x28
 23fe902:	9302      	str	r3, [sp, #8]
 23fe904:	bd09      	pop	{r0, r3, pc}
 23fe906:	0000      	.short	0x0000
 23fe908:	1007add8 	.word	0x1007add8
 23fe90c:	00000024 	.word	0x00000024

023fe910 <hal_usart_init_ex>:
DYNALIB_FN(BASE_IDX2 + 0, hal_usart, hal_usart_begin_config, void(hal_usart_interface_t serial, uint32_t baud, uint32_t config, void *ptr))
DYNALIB_FN(BASE_IDX2 + 1, hal_usart, hal_usart_write_nine_bits, uint32_t(hal_usart_interface_t serial, uint16_t data))
DYNALIB_FN(BASE_IDX2 + 2, hal_usart, hal_usart_send_break, void(hal_usart_interface_t, void*))
DYNALIB_FN(BASE_IDX2 + 3, hal_usart, hal_usart_break_detected, uint8_t(hal_usart_interface_t))
DYNALIB_FN(BASE_IDX2 + 4, hal_usart, hal_usart_sleep, int(hal_usart_interface_t serial, bool, void*))
DYNALIB_FN(BASE_IDX2 + 5, hal_usart, hal_usart_init_ex, int(hal_usart_interface_t, const hal_usart_buffer_config_t*, void*))
 23fe910:	b509      	push	{r0, r3, lr}
 23fe912:	4804      	ldr	r0, [pc, #16]	; (23fe924 <hal_usart_init_ex+0x14>)
 23fe914:	6800      	ldr	r0, [r0, #0]
 23fe916:	4b04      	ldr	r3, [pc, #16]	; (23fe928 <hal_usart_init_ex+0x18>)
 23fe918:	4403      	add	r3, r0
 23fe91a:	681b      	ldr	r3, [r3, #0]
 23fe91c:	6c1b      	ldr	r3, [r3, #64]	; 0x40
 23fe91e:	9302      	str	r3, [sp, #8]
 23fe920:	bd09      	pop	{r0, r3, pc}
 23fe922:	0000      	.short	0x0000
 23fe924:	1007add8 	.word	0x1007add8
 23fe928:	00000024 	.word	0x00000024

023fe92c <hal_i2c_write>:
DYNALIB_FN(3, hal_i2c, hal_i2c_begin, void(hal_i2c_interface_t, hal_i2c_mode_t, uint8_t, void*))
DYNALIB_FN(4, hal_i2c, hal_i2c_end, void(hal_i2c_interface_t, void*))
DYNALIB_FN(5, hal_i2c, hal_i2c_request, uint32_t(hal_i2c_interface_t, uint8_t, uint8_t, uint8_t, void*))
DYNALIB_FN(6, hal_i2c, hal_i2c_begin_transmission, void(hal_i2c_interface_t, uint8_t, const hal_i2c_transmission_config_t*))
DYNALIB_FN(7, hal_i2c, hal_i2c_end_transmission, uint8_t(hal_i2c_interface_t, uint8_t, void*))
DYNALIB_FN(8, hal_i2c, hal_i2c_write, uint32_t(hal_i2c_interface_t, uint8_t, void*))
 23fe92c:	b509      	push	{r0, r3, lr}
 23fe92e:	4804      	ldr	r0, [pc, #16]	; (23fe940 <hal_i2c_write+0x14>)
 23fe930:	6800      	ldr	r0, [r0, #0]
 23fe932:	4b04      	ldr	r3, [pc, #16]	; (23fe944 <hal_i2c_write+0x18>)
 23fe934:	4403      	add	r3, r0
 23fe936:	681b      	ldr	r3, [r3, #0]
 23fe938:	6a1b      	ldr	r3, [r3, #32]
 23fe93a:	9302      	str	r3, [sp, #8]
 23fe93c:	bd09      	pop	{r0, r3, pc}
 23fe93e:	0000      	.short	0x0000
 23fe940:	1007add8 	.word	0x1007add8
 23fe944:	00000010 	.word	0x00000010

023fe948 <hal_i2c_available>:
DYNALIB_FN(9, hal_i2c, hal_i2c_available, int32_t(hal_i2c_interface_t, void*))
 23fe948:	b509      	push	{r0, r3, lr}
 23fe94a:	4804      	ldr	r0, [pc, #16]	; (23fe95c <hal_i2c_available+0x14>)
 23fe94c:	6800      	ldr	r0, [r0, #0]
 23fe94e:	4b04      	ldr	r3, [pc, #16]	; (23fe960 <hal_i2c_available+0x18>)
 23fe950:	4403      	add	r3, r0
 23fe952:	681b      	ldr	r3, [r3, #0]
 23fe954:	6a5b      	ldr	r3, [r3, #36]	; 0x24
 23fe956:	9302      	str	r3, [sp, #8]
 23fe958:	bd09      	pop	{r0, r3, pc}
 23fe95a:	0000      	.short	0x0000
 23fe95c:	1007add8 	.word	0x1007add8
 23fe960:	00000010 	.word	0x00000010

023fe964 <hal_i2c_read>:
DYNALIB_FN(10, hal_i2c, hal_i2c_read, int32_t(hal_i2c_interface_t, void*))
 23fe964:	b509      	push	{r0, r3, lr}
 23fe966:	4804      	ldr	r0, [pc, #16]	; (23fe978 <hal_i2c_read+0x14>)
 23fe968:	6800      	ldr	r0, [r0, #0]
 23fe96a:	4b04      	ldr	r3, [pc, #16]	; (23fe97c <hal_i2c_read+0x18>)
 23fe96c:	4403      	add	r3, r0
 23fe96e:	681b      	ldr	r3, [r3, #0]
 23fe970:	6a9b      	ldr	r3, [r3, #40]	; 0x28
 23fe972:	9302      	str	r3, [sp, #8]
 23fe974:	bd09      	pop	{r0, r3, pc}
 23fe976:	0000      	.short	0x0000
 23fe978:	1007add8 	.word	0x1007add8
 23fe97c:	00000010 	.word	0x00000010

023fe980 <hal_i2c_peek>:
DYNALIB_FN(11, hal_i2c, hal_i2c_peek, int32_t(hal_i2c_interface_t, void*))
 23fe980:	b509      	push	{r0, r3, lr}
 23fe982:	4804      	ldr	r0, [pc, #16]	; (23fe994 <hal_i2c_peek+0x14>)
 23fe984:	6800      	ldr	r0, [r0, #0]
 23fe986:	4b04      	ldr	r3, [pc, #16]	; (23fe998 <hal_i2c_peek+0x18>)
 23fe988:	4403      	add	r3, r0
 23fe98a:	681b      	ldr	r3, [r3, #0]
 23fe98c:	6adb      	ldr	r3, [r3, #44]	; 0x2c
 23fe98e:	9302      	str	r3, [sp, #8]
 23fe990:	bd09      	pop	{r0, r3, pc}
 23fe992:	0000      	.short	0x0000
 23fe994:	1007add8 	.word	0x1007add8
 23fe998:	00000010 	.word	0x00000010

023fe99c <hal_i2c_flush>:
DYNALIB_FN(12, hal_i2c, hal_i2c_flush, void(hal_i2c_interface_t, void*))
 23fe99c:	b509      	push	{r0, r3, lr}
 23fe99e:	4804      	ldr	r0, [pc, #16]	; (23fe9b0 <hal_i2c_flush+0x14>)
 23fe9a0:	6800      	ldr	r0, [r0, #0]
 23fe9a2:	4b04      	ldr	r3, [pc, #16]	; (23fe9b4 <hal_i2c_flush+0x18>)
 23fe9a4:	4403      	add	r3, r0
 23fe9a6:	681b      	ldr	r3, [r3, #0]
 23fe9a8:	6b1b      	ldr	r3, [r3, #48]	; 0x30
 23fe9aa:	9302      	str	r3, [sp, #8]
 23fe9ac:	bd09      	pop	{r0, r3, pc}
 23fe9ae:	0000      	.short	0x0000
 23fe9b0:	1007add8 	.word	0x1007add8
 23fe9b4:	00000010 	.word	0x00000010

023fe9b8 <hal_i2c_is_enabled>:
DYNALIB_FN(13, hal_i2c, hal_i2c_is_enabled, bool(hal_i2c_interface_t, void*))
 23fe9b8:	b509      	push	{r0, r3, lr}
 23fe9ba:	4804      	ldr	r0, [pc, #16]	; (23fe9cc <hal_i2c_is_enabled+0x14>)
 23fe9bc:	6800      	ldr	r0, [r0, #0]
 23fe9be:	4b04      	ldr	r3, [pc, #16]	; (23fe9d0 <hal_i2c_is_enabled+0x18>)
 23fe9c0:	4403      	add	r3, r0
 23fe9c2:	681b      	ldr	r3, [r3, #0]
 23fe9c4:	6b5b      	ldr	r3, [r3, #52]	; 0x34
 23fe9c6:	9302      	str	r3, [sp, #8]
 23fe9c8:	bd09      	pop	{r0, r3, pc}
 23fe9ca:	0000      	.short	0x0000
 23fe9cc:	1007add8 	.word	0x1007add8
 23fe9d0:	00000010 	.word	0x00000010

023fe9d4 <hal_i2c_init>:
DYNALIB_FN(14, hal_i2c, hal_i2c_set_callback_on_received, void(hal_i2c_interface_t, void(*)(int), void*))
DYNALIB_FN(15, hal_i2c, hal_i2c_set_callback_on_requested, void(hal_i2c_interface_t, void(*)(void), void*))
DYNALIB_FN(16, hal_i2c, hal_i2c_init, int(hal_i2c_interface_t, const hal_i2c_config_t*))
 23fe9d4:	b509      	push	{r0, r3, lr}
 23fe9d6:	4804      	ldr	r0, [pc, #16]	; (23fe9e8 <hal_i2c_init+0x14>)
 23fe9d8:	6800      	ldr	r0, [r0, #0]
 23fe9da:	4b04      	ldr	r3, [pc, #16]	; (23fe9ec <hal_i2c_init+0x18>)
 23fe9dc:	4403      	add	r3, r0
 23fe9de:	681b      	ldr	r3, [r3, #0]
 23fe9e0:	6c1b      	ldr	r3, [r3, #64]	; 0x40
 23fe9e2:	9302      	str	r3, [sp, #8]
 23fe9e4:	bd09      	pop	{r0, r3, pc}
 23fe9e6:	0000      	.short	0x0000
 23fe9e8:	1007add8 	.word	0x1007add8
 23fe9ec:	00000010 	.word	0x00000010

023fe9f0 <hal_spi_set_clock_divider>:

DYNALIB_FN(0, hal_spi, hal_spi_begin, void(hal_spi_interface_t, uint16_t))
DYNALIB_FN(1, hal_spi, hal_spi_end, void(hal_spi_interface_t))
DYNALIB_FN(2, hal_spi, hal_spi_set_bit_order, void(hal_spi_interface_t, uint8_t))
DYNALIB_FN(3, hal_spi, hal_spi_set_data_mode, void(hal_spi_interface_t, uint8_t))
DYNALIB_FN(4, hal_spi, hal_spi_set_clock_divider, void(hal_spi_interface_t, uint8_t))
 23fe9f0:	b509      	push	{r0, r3, lr}
 23fe9f2:	4804      	ldr	r0, [pc, #16]	; (23fea04 <hal_spi_set_clock_divider+0x14>)
 23fe9f4:	6800      	ldr	r0, [r0, #0]
 23fe9f6:	4b04      	ldr	r3, [pc, #16]	; (23fea08 <hal_spi_set_clock_divider+0x18>)
 23fe9f8:	4403      	add	r3, r0
 23fe9fa:	681b      	ldr	r3, [r3, #0]
 23fe9fc:	691b      	ldr	r3, [r3, #16]
 23fe9fe:	9302      	str	r3, [sp, #8]
 23fea00:	bd09      	pop	{r0, r3, pc}
 23fea02:	0000      	.short	0x0000
 23fea04:	1007add8 	.word	0x1007add8
 23fea08:	00000018 	.word	0x00000018

023fea0c <hal_spi_init>:
DYNALIB_FN(5, hal_spi, hal_spi_transfer, uint16_t(hal_spi_interface_t, uint16_t))
DYNALIB_FN(6, hal_spi, hal_spi_is_enabled_deprecated, bool(void))
DYNALIB_FN(7, hal_spi, hal_spi_init, void(hal_spi_interface_t))
 23fea0c:	b509      	push	{r0, r3, lr}
 23fea0e:	4804      	ldr	r0, [pc, #16]	; (23fea20 <hal_spi_init+0x14>)
 23fea10:	6800      	ldr	r0, [r0, #0]
 23fea12:	4b04      	ldr	r3, [pc, #16]	; (23fea24 <hal_spi_init+0x18>)
 23fea14:	4403      	add	r3, r0
 23fea16:	681b      	ldr	r3, [r3, #0]
 23fea18:	69db      	ldr	r3, [r3, #28]
 23fea1a:	9302      	str	r3, [sp, #8]
 23fea1c:	bd09      	pop	{r0, r3, pc}
 23fea1e:	0000      	.short	0x0000
 23fea20:	1007add8 	.word	0x1007add8
 23fea24:	00000018 	.word	0x00000018

023fea28 <hal_spi_is_enabled>:
DYNALIB_FN(8, hal_spi, hal_spi_is_enabled, bool(hal_spi_interface_t))
 23fea28:	b509      	push	{r0, r3, lr}
 23fea2a:	4804      	ldr	r0, [pc, #16]	; (23fea3c <hal_spi_is_enabled+0x14>)
 23fea2c:	6800      	ldr	r0, [r0, #0]
 23fea2e:	4b04      	ldr	r3, [pc, #16]	; (23fea40 <hal_spi_is_enabled+0x18>)
 23fea30:	4403      	add	r3, r0
 23fea32:	681b      	ldr	r3, [r3, #0]
 23fea34:	6a1b      	ldr	r3, [r3, #32]
 23fea36:	9302      	str	r3, [sp, #8]
 23fea38:	bd09      	pop	{r0, r3, pc}
 23fea3a:	0000      	.short	0x0000
 23fea3c:	1007add8 	.word	0x1007add8
 23fea40:	00000018 	.word	0x00000018

023fea44 <hal_spi_info>:
DYNALIB_FN(9, hal_spi, hal_spi_info, void(hal_spi_interface_t, hal_spi_info_t*, void*))
 23fea44:	b509      	push	{r0, r3, lr}
 23fea46:	4804      	ldr	r0, [pc, #16]	; (23fea58 <hal_spi_info+0x14>)
 23fea48:	6800      	ldr	r0, [r0, #0]
 23fea4a:	4b04      	ldr	r3, [pc, #16]	; (23fea5c <hal_spi_info+0x18>)
 23fea4c:	4403      	add	r3, r0
 23fea4e:	681b      	ldr	r3, [r3, #0]
 23fea50:	6a5b      	ldr	r3, [r3, #36]	; 0x24
 23fea52:	9302      	str	r3, [sp, #8]
 23fea54:	bd09      	pop	{r0, r3, pc}
 23fea56:	0000      	.short	0x0000
 23fea58:	1007add8 	.word	0x1007add8
 23fea5c:	00000018 	.word	0x00000018

023fea60 <hal_spi_transfer_dma>:
DYNALIB_FN(10, hal_spi, hal_spi_transfer_dma, void(hal_spi_interface_t, const void*, void*, uint32_t, hal_spi_dma_user_callback))
 23fea60:	b509      	push	{r0, r3, lr}
 23fea62:	4804      	ldr	r0, [pc, #16]	; (23fea74 <hal_spi_transfer_dma+0x14>)
 23fea64:	6800      	ldr	r0, [r0, #0]
 23fea66:	4b04      	ldr	r3, [pc, #16]	; (23fea78 <hal_spi_transfer_dma+0x18>)
 23fea68:	4403      	add	r3, r0
 23fea6a:	681b      	ldr	r3, [r3, #0]
 23fea6c:	6a9b      	ldr	r3, [r3, #40]	; 0x28
 23fea6e:	9302      	str	r3, [sp, #8]
 23fea70:	bd09      	pop	{r0, r3, pc}
 23fea72:	0000      	.short	0x0000
 23fea74:	1007add8 	.word	0x1007add8
 23fea78:	00000018 	.word	0x00000018

023fea7c <hal_spi_begin_ext>:
DYNALIB_FN(11, hal_spi, hal_spi_begin_ext, void(hal_spi_interface_t, hal_spi_mode_t, uint16_t, const hal_spi_config_t*))
 23fea7c:	b509      	push	{r0, r3, lr}
 23fea7e:	4804      	ldr	r0, [pc, #16]	; (23fea90 <hal_spi_begin_ext+0x14>)
 23fea80:	6800      	ldr	r0, [r0, #0]
 23fea82:	4b04      	ldr	r3, [pc, #16]	; (23fea94 <hal_spi_begin_ext+0x18>)
 23fea84:	4403      	add	r3, r0
 23fea86:	681b      	ldr	r3, [r3, #0]
 23fea88:	6adb      	ldr	r3, [r3, #44]	; 0x2c
 23fea8a:	9302      	str	r3, [sp, #8]
 23fea8c:	bd09      	pop	{r0, r3, pc}
 23fea8e:	0000      	.short	0x0000
 23fea90:	1007add8 	.word	0x1007add8
 23fea94:	00000018 	.word	0x00000018

023fea98 <hal_spi_transfer_dma_status>:
DYNALIB_FN(12, hal_spi, hal_spi_set_callback_on_selected, void(hal_spi_interface_t, hal_spi_select_user_callback, void*))
DYNALIB_FN(13, hal_spi, hal_spi_transfer_dma_cancel, void(hal_spi_interface_t))
DYNALIB_FN(14, hal_spi, hal_spi_transfer_dma_status, int32_t(hal_spi_interface_t, hal_spi_transfer_status_t*))
 23fea98:	b509      	push	{r0, r3, lr}
 23fea9a:	4804      	ldr	r0, [pc, #16]	; (23feaac <hal_spi_transfer_dma_status+0x14>)
 23fea9c:	6800      	ldr	r0, [r0, #0]
 23fea9e:	4b04      	ldr	r3, [pc, #16]	; (23feab0 <hal_spi_transfer_dma_status+0x18>)
 23feaa0:	4403      	add	r3, r0
 23feaa2:	681b      	ldr	r3, [r3, #0]
 23feaa4:	6b9b      	ldr	r3, [r3, #56]	; 0x38
 23feaa6:	9302      	str	r3, [sp, #8]
 23feaa8:	bd09      	pop	{r0, r3, pc}
 23feaaa:	0000      	.short	0x0000
 23feaac:	1007add8 	.word	0x1007add8
 23feab0:	00000018 	.word	0x00000018

023feab4 <hal_spi_acquire>:
DYNALIB_FN(15, hal_spi, hal_spi_set_settings, int32_t(hal_spi_interface_t, uint8_t, uint8_t, uint8_t, uint8_t, void*))
#if HAL_PLATFORM_SPI_HAL_THREAD_SAFETY
DYNALIB_FN(16, hal_spi, hal_spi_acquire, int32_t(hal_spi_interface_t, const hal_spi_acquire_config_t*))
 23feab4:	b509      	push	{r0, r3, lr}
 23feab6:	4804      	ldr	r0, [pc, #16]	; (23feac8 <hal_spi_acquire+0x14>)
 23feab8:	6800      	ldr	r0, [r0, #0]
 23feaba:	4b04      	ldr	r3, [pc, #16]	; (23feacc <hal_spi_acquire+0x18>)
 23feabc:	4403      	add	r3, r0
 23feabe:	681b      	ldr	r3, [r3, #0]
 23feac0:	6c1b      	ldr	r3, [r3, #64]	; 0x40
 23feac2:	9302      	str	r3, [sp, #8]
 23feac4:	bd09      	pop	{r0, r3, pc}
 23feac6:	0000      	.short	0x0000
 23feac8:	1007add8 	.word	0x1007add8
 23feacc:	00000018 	.word	0x00000018

023fead0 <hal_spi_release>:
DYNALIB_FN(17, hal_spi, hal_spi_release, int32_t(hal_spi_interface_t, void*))
 23fead0:	b509      	push	{r0, r3, lr}
 23fead2:	4804      	ldr	r0, [pc, #16]	; (23feae4 <hal_spi_release+0x14>)
 23fead4:	6800      	ldr	r0, [r0, #0]
 23fead6:	4b04      	ldr	r3, [pc, #16]	; (23feae8 <hal_spi_release+0x18>)
 23fead8:	4403      	add	r3, r0
 23feada:	681b      	ldr	r3, [r3, #0]
 23feadc:	6c5b      	ldr	r3, [r3, #68]	; 0x44
 23feade:	9302      	str	r3, [sp, #8]
 23feae0:	bd09      	pop	{r0, r3, pc}
 23feae2:	0000      	.short	0x0000
 23feae4:	1007add8 	.word	0x1007add8
 23feae8:	00000018 	.word	0x00000018

023feaec <HAL_USB_USART_Init>:
// GNINRAW

DYNALIB_BEGIN(hal_usb)

#ifdef USB_CDC_ENABLE
DYNALIB_FN(0, hal_usb, HAL_USB_USART_Init, void(HAL_USB_USART_Serial, const HAL_USB_USART_Config*))
 23feaec:	b509      	push	{r0, r3, lr}
 23feaee:	4804      	ldr	r0, [pc, #16]	; (23feb00 <HAL_USB_USART_Init+0x14>)
 23feaf0:	6800      	ldr	r0, [r0, #0]
 23feaf2:	4b04      	ldr	r3, [pc, #16]	; (23feb04 <HAL_USB_USART_Init+0x18>)
 23feaf4:	4403      	add	r3, r0
 23feaf6:	681b      	ldr	r3, [r3, #0]
 23feaf8:	681b      	ldr	r3, [r3, #0]
 23feafa:	9302      	str	r3, [sp, #8]
 23feafc:	bd09      	pop	{r0, r3, pc}
 23feafe:	0000      	.short	0x0000
 23feb00:	1007add8 	.word	0x1007add8
 23feb04:	00000034 	.word	0x00000034

023feb08 <HAL_USB_USART_Begin>:
DYNALIB_FN(1, hal_usb, HAL_USB_USART_Begin, void(HAL_USB_USART_Serial, uint32_t, void *))
 23feb08:	b509      	push	{r0, r3, lr}
 23feb0a:	4804      	ldr	r0, [pc, #16]	; (23feb1c <HAL_USB_USART_Begin+0x14>)
 23feb0c:	6800      	ldr	r0, [r0, #0]
 23feb0e:	4b04      	ldr	r3, [pc, #16]	; (23feb20 <HAL_USB_USART_Begin+0x18>)
 23feb10:	4403      	add	r3, r0
 23feb12:	681b      	ldr	r3, [r3, #0]
 23feb14:	685b      	ldr	r3, [r3, #4]
 23feb16:	9302      	str	r3, [sp, #8]
 23feb18:	bd09      	pop	{r0, r3, pc}
 23feb1a:	0000      	.short	0x0000
 23feb1c:	1007add8 	.word	0x1007add8
 23feb20:	00000034 	.word	0x00000034

023feb24 <HAL_USB_USART_Available_Data>:
DYNALIB_FN(2, hal_usb, HAL_USB_USART_End, void(HAL_USB_USART_Serial))
DYNALIB_FN(3, hal_usb, HAL_USB_USART_Baud_Rate, unsigned int(HAL_USB_USART_Serial))
DYNALIB_FN(4, hal_usb, HAL_USB_USART_Available_Data, int32_t(HAL_USB_USART_Serial))
 23feb24:	b509      	push	{r0, r3, lr}
 23feb26:	4804      	ldr	r0, [pc, #16]	; (23feb38 <HAL_USB_USART_Available_Data+0x14>)
 23feb28:	6800      	ldr	r0, [r0, #0]
 23feb2a:	4b04      	ldr	r3, [pc, #16]	; (23feb3c <HAL_USB_USART_Available_Data+0x18>)
 23feb2c:	4403      	add	r3, r0
 23feb2e:	681b      	ldr	r3, [r3, #0]
 23feb30:	691b      	ldr	r3, [r3, #16]
 23feb32:	9302      	str	r3, [sp, #8]
 23feb34:	bd09      	pop	{r0, r3, pc}
 23feb36:	0000      	.short	0x0000
 23feb38:	1007add8 	.word	0x1007add8
 23feb3c:	00000034 	.word	0x00000034

023feb40 <HAL_USB_USART_Available_Data_For_Write>:
DYNALIB_FN(5, hal_usb, HAL_USB_USART_Available_Data_For_Write, int32_t(HAL_USB_USART_Serial))
 23feb40:	b509      	push	{r0, r3, lr}
 23feb42:	4804      	ldr	r0, [pc, #16]	; (23feb54 <HAL_USB_USART_Available_Data_For_Write+0x14>)
 23feb44:	6800      	ldr	r0, [r0, #0]
 23feb46:	4b04      	ldr	r3, [pc, #16]	; (23feb58 <HAL_USB_USART_Available_Data_For_Write+0x18>)
 23feb48:	4403      	add	r3, r0
 23feb4a:	681b      	ldr	r3, [r3, #0]
 23feb4c:	695b      	ldr	r3, [r3, #20]
 23feb4e:	9302      	str	r3, [sp, #8]
 23feb50:	bd09      	pop	{r0, r3, pc}
 23feb52:	0000      	.short	0x0000
 23feb54:	1007add8 	.word	0x1007add8
 23feb58:	00000034 	.word	0x00000034

023feb5c <HAL_USB_USART_Receive_Data>:
DYNALIB_FN(6, hal_usb, HAL_USB_USART_Receive_Data, int32_t(HAL_USB_USART_Serial, uint8_t))
 23feb5c:	b509      	push	{r0, r3, lr}
 23feb5e:	4804      	ldr	r0, [pc, #16]	; (23feb70 <HAL_USB_USART_Receive_Data+0x14>)
 23feb60:	6800      	ldr	r0, [r0, #0]
 23feb62:	4b04      	ldr	r3, [pc, #16]	; (23feb74 <HAL_USB_USART_Receive_Data+0x18>)
 23feb64:	4403      	add	r3, r0
 23feb66:	681b      	ldr	r3, [r3, #0]
 23feb68:	699b      	ldr	r3, [r3, #24]
 23feb6a:	9302      	str	r3, [sp, #8]
 23feb6c:	bd09      	pop	{r0, r3, pc}
 23feb6e:	0000      	.short	0x0000
 23feb70:	1007add8 	.word	0x1007add8
 23feb74:	00000034 	.word	0x00000034

023feb78 <HAL_USB_USART_Send_Data>:
DYNALIB_FN(7, hal_usb, HAL_USB_USART_Send_Data, int32_t(HAL_USB_USART_Serial, uint8_t))
 23feb78:	b509      	push	{r0, r3, lr}
 23feb7a:	4804      	ldr	r0, [pc, #16]	; (23feb8c <HAL_USB_USART_Send_Data+0x14>)
 23feb7c:	6800      	ldr	r0, [r0, #0]
 23feb7e:	4b04      	ldr	r3, [pc, #16]	; (23feb90 <HAL_USB_USART_Send_Data+0x18>)
 23feb80:	4403      	add	r3, r0
 23feb82:	681b      	ldr	r3, [r3, #0]
 23feb84:	69db      	ldr	r3, [r3, #28]
 23feb86:	9302      	str	r3, [sp, #8]
 23feb88:	bd09      	pop	{r0, r3, pc}
 23feb8a:	0000      	.short	0x0000
 23feb8c:	1007add8 	.word	0x1007add8
 23feb90:	00000034 	.word	0x00000034

023feb94 <HAL_USB_USART_Flush_Data>:
DYNALIB_FN(8, hal_usb, HAL_USB_USART_Flush_Data, void(HAL_USB_USART_Serial))
 23feb94:	b509      	push	{r0, r3, lr}
 23feb96:	4804      	ldr	r0, [pc, #16]	; (23feba8 <HAL_USB_USART_Flush_Data+0x14>)
 23feb98:	6800      	ldr	r0, [r0, #0]
 23feb9a:	4b04      	ldr	r3, [pc, #16]	; (23febac <HAL_USB_USART_Flush_Data+0x18>)
 23feb9c:	4403      	add	r3, r0
 23feb9e:	681b      	ldr	r3, [r3, #0]
 23feba0:	6a1b      	ldr	r3, [r3, #32]
 23feba2:	9302      	str	r3, [sp, #8]
 23feba4:	bd09      	pop	{r0, r3, pc}
 23feba6:	0000      	.short	0x0000
 23feba8:	1007add8 	.word	0x1007add8
 23febac:	00000034 	.word	0x00000034

023febb0 <HAL_USB_USART_Is_Connected>:
DYNALIB_FN(9, hal_usb, HAL_USB_USART_Is_Enabled, bool(HAL_USB_USART_Serial))
DYNALIB_FN(10, hal_usb, HAL_USB_USART_Is_Connected, bool(HAL_USB_USART_Serial))
 23febb0:	b509      	push	{r0, r3, lr}
 23febb2:	4804      	ldr	r0, [pc, #16]	; (23febc4 <HAL_USB_USART_Is_Connected+0x14>)
 23febb4:	6800      	ldr	r0, [r0, #0]
 23febb6:	4b04      	ldr	r3, [pc, #16]	; (23febc8 <HAL_USB_USART_Is_Connected+0x18>)
 23febb8:	4403      	add	r3, r0
 23febba:	681b      	ldr	r3, [r3, #0]
 23febbc:	6a9b      	ldr	r3, [r3, #40]	; 0x28
 23febbe:	9302      	str	r3, [sp, #8]
 23febc0:	bd09      	pop	{r0, r3, pc}
 23febc2:	0000      	.short	0x0000
 23febc4:	1007add8 	.word	0x1007add8
 23febc8:	00000034 	.word	0x00000034

023febcc <log_message_v>:
DYNALIB_FN(17, services, LED_RGB_SetChangeHandler, void(led_update_handler_fn, void*))
DYNALIB_FN(18, services, log_print_direct_, void(int, void*, const char*, ...)) // Deprecated
DYNALIB_FN(19, services, LED_GetColor, uint32_t(uint32_t, void*))

DYNALIB_FN(20, services, log_message, void(int, const char*, LogAttributes*, void*, const char*, ...))
DYNALIB_FN(21, services, log_message_v, void(int, const char*, LogAttributes*, void*, const char*, va_list))
 23febcc:	b509      	push	{r0, r3, lr}
 23febce:	4804      	ldr	r0, [pc, #16]	; (23febe0 <log_message_v+0x14>)
 23febd0:	6800      	ldr	r0, [r0, #0]
 23febd2:	4b04      	ldr	r3, [pc, #16]	; (23febe4 <log_message_v+0x18>)
 23febd4:	4403      	add	r3, r0
 23febd6:	681b      	ldr	r3, [r3, #0]
 23febd8:	6d5b      	ldr	r3, [r3, #84]	; 0x54
 23febda:	9302      	str	r3, [sp, #8]
 23febdc:	bd09      	pop	{r0, r3, pc}
 23febde:	0000      	.short	0x0000
 23febe0:	1007add8 	.word	0x1007add8
 23febe4:	00000048 	.word	0x00000048

023febe8 <set_system_mode>:
#endif

DYNALIB_BEGIN(system)

DYNALIB_FN(0, system, system_mode, System_Mode_TypeDef(void))
DYNALIB_FN(1, system, set_system_mode, void(System_Mode_TypeDef))
 23febe8:	b509      	push	{r0, r3, lr}
 23febea:	4804      	ldr	r0, [pc, #16]	; (23febfc <set_system_mode+0x14>)
 23febec:	6800      	ldr	r0, [r0, #0]
 23febee:	4b04      	ldr	r3, [pc, #16]	; (23fec00 <set_system_mode+0x18>)
 23febf0:	4403      	add	r3, r0
 23febf2:	681b      	ldr	r3, [r3, #0]
 23febf4:	685b      	ldr	r3, [r3, #4]
 23febf6:	9302      	str	r3, [sp, #8]
 23febf8:	bd09      	pop	{r0, r3, pc}
 23febfa:	0000      	.short	0x0000
 23febfc:	1007add8 	.word	0x1007add8
 23fec00:	00000008 	.word	0x00000008

023fec04 <system_delay_ms>:

DYNALIB_FN(2, system, set_ymodem_serial_flash_update_handler, void(ymodem_serial_flash_update_handler))
DYNALIB_FN(3, system, system_firmwareUpdate, bool(Stream*, void*))
DYNALIB_FN(4, system, system_fileTransfer, bool(system_file_transfer_t*, void*))

DYNALIB_FN(5, system, system_delay_ms, void(unsigned long, bool))
 23fec04:	b509      	push	{r0, r3, lr}
 23fec06:	4804      	ldr	r0, [pc, #16]	; (23fec18 <system_delay_ms+0x14>)
 23fec08:	6800      	ldr	r0, [r0, #0]
 23fec0a:	4b04      	ldr	r3, [pc, #16]	; (23fec1c <system_delay_ms+0x18>)
 23fec0c:	4403      	add	r3, r0
 23fec0e:	681b      	ldr	r3, [r3, #0]
 23fec10:	695b      	ldr	r3, [r3, #20]
 23fec12:	9302      	str	r3, [sp, #8]
 23fec14:	bd09      	pop	{r0, r3, pc}
 23fec16:	0000      	.short	0x0000
 23fec18:	1007add8 	.word	0x1007add8
 23fec1c:	00000008 	.word	0x00000008

023fec20 <system_ctrl_set_app_request_handler>:
DYNALIB_FN(BASE_IDX + 6, system, led_pattern_period, uint16_t(int, int, void*))
DYNALIB_FN(BASE_IDX + 7, system, system_set_tester_handlers, int(system_tester_handlers_t*, void*))
DYNALIB_FN(BASE_IDX + 8, system, system_format_diag_data, int(const uint16_t*, size_t, unsigned, appender_fn, void*, void*))

// Control requests
DYNALIB_FN(BASE_IDX + 9, system, system_ctrl_set_app_request_handler, int(ctrl_request_handler_fn, void*))
 23fec20:	b509      	push	{r0, r3, lr}
 23fec22:	4804      	ldr	r0, [pc, #16]	; (23fec34 <system_ctrl_set_app_request_handler+0x14>)
 23fec24:	6800      	ldr	r0, [r0, #0]
 23fec26:	4b04      	ldr	r3, [pc, #16]	; (23fec38 <system_ctrl_set_app_request_handler+0x18>)
 23fec28:	4403      	add	r3, r0
 23fec2a:	681b      	ldr	r3, [r3, #0]
 23fec2c:	f8d3 3088 	ldr.w	r3, [r3, #136]	; 0x88
 23fec30:	9302      	str	r3, [sp, #8]
 23fec32:	bd09      	pop	{r0, r3, pc}
 23fec34:	1007add8 	.word	0x1007add8
 23fec38:	00000008 	.word	0x00000008

023fec3c <system_ctrl_set_result>:
DYNALIB_FN(BASE_IDX + 10, system, system_ctrl_alloc_reply_data, int(ctrl_request*, size_t, void*))
DYNALIB_FN(BASE_IDX + 11, system, system_ctrl_free_request_data, void(ctrl_request*, void*))
DYNALIB_FN(BASE_IDX + 12, system, system_ctrl_set_result, void(ctrl_request*, int, ctrl_completion_handler_fn, void*, void*))
 23fec3c:	b509      	push	{r0, r3, lr}
 23fec3e:	4804      	ldr	r0, [pc, #16]	; (23fec50 <system_ctrl_set_result+0x14>)
 23fec40:	6800      	ldr	r0, [r0, #0]
 23fec42:	4b04      	ldr	r3, [pc, #16]	; (23fec54 <system_ctrl_set_result+0x18>)
 23fec44:	4403      	add	r3, r0
 23fec46:	681b      	ldr	r3, [r3, #0]
 23fec48:	f8d3 3094 	ldr.w	r3, [r3, #148]	; 0x94
 23fec4c:	9302      	str	r3, [sp, #8]
 23fec4e:	bd09      	pop	{r0, r3, pc}
 23fec50:	1007add8 	.word	0x1007add8
 23fec54:	00000008 	.word	0x00000008

023fec58 <network_connect>:
#endif

DYNALIB_BEGIN(system_net)

DYNALIB_FN(0, system_net, network_config, const void*(network_handle_t, uint32_t, void*))
DYNALIB_FN(1, system_net, network_connect, void(network_handle_t, uint32_t, uint32_t, void*))
 23fec58:	b509      	push	{r0, r3, lr}
 23fec5a:	4804      	ldr	r0, [pc, #16]	; (23fec6c <network_connect+0x14>)
 23fec5c:	6800      	ldr	r0, [r0, #0]
 23fec5e:	4b04      	ldr	r3, [pc, #16]	; (23fec70 <network_connect+0x18>)
 23fec60:	4403      	add	r3, r0
 23fec62:	681b      	ldr	r3, [r3, #0]
 23fec64:	685b      	ldr	r3, [r3, #4]
 23fec66:	9302      	str	r3, [sp, #8]
 23fec68:	bd09      	pop	{r0, r3, pc}
 23fec6a:	0000      	.short	0x0000
 23fec6c:	1007add8 	.word	0x1007add8
 23fec70:	00000028 	.word	0x00000028

023fec74 <network_connecting>:
DYNALIB_FN(2, system_net, network_connecting, bool(network_handle_t, uint32_t, void*))
 23fec74:	b509      	push	{r0, r3, lr}
 23fec76:	4804      	ldr	r0, [pc, #16]	; (23fec88 <network_connecting+0x14>)
 23fec78:	6800      	ldr	r0, [r0, #0]
 23fec7a:	4b04      	ldr	r3, [pc, #16]	; (23fec8c <network_connecting+0x18>)
 23fec7c:	4403      	add	r3, r0
 23fec7e:	681b      	ldr	r3, [r3, #0]
 23fec80:	689b      	ldr	r3, [r3, #8]
 23fec82:	9302      	str	r3, [sp, #8]
 23fec84:	bd09      	pop	{r0, r3, pc}
 23fec86:	0000      	.short	0x0000
 23fec88:	1007add8 	.word	0x1007add8
 23fec8c:	00000028 	.word	0x00000028

023fec90 <network_disconnect>:
DYNALIB_FN(3, system_net, network_disconnect, void(network_handle_t, uint32_t, void*))
 23fec90:	b509      	push	{r0, r3, lr}
 23fec92:	4804      	ldr	r0, [pc, #16]	; (23feca4 <network_disconnect+0x14>)
 23fec94:	6800      	ldr	r0, [r0, #0]
 23fec96:	4b04      	ldr	r3, [pc, #16]	; (23feca8 <network_disconnect+0x18>)
 23fec98:	4403      	add	r3, r0
 23fec9a:	681b      	ldr	r3, [r3, #0]
 23fec9c:	68db      	ldr	r3, [r3, #12]
 23fec9e:	9302      	str	r3, [sp, #8]
 23feca0:	bd09      	pop	{r0, r3, pc}
 23feca2:	0000      	.short	0x0000
 23feca4:	1007add8 	.word	0x1007add8
 23feca8:	00000028 	.word	0x00000028

023fecac <network_ready>:
DYNALIB_FN(4, system_net, network_ready, bool(network_handle_t, uint32_t, void*))
 23fecac:	b509      	push	{r0, r3, lr}
 23fecae:	4804      	ldr	r0, [pc, #16]	; (23fecc0 <network_ready+0x14>)
 23fecb0:	6800      	ldr	r0, [r0, #0]
 23fecb2:	4b04      	ldr	r3, [pc, #16]	; (23fecc4 <network_ready+0x18>)
 23fecb4:	4403      	add	r3, r0
 23fecb6:	681b      	ldr	r3, [r3, #0]
 23fecb8:	691b      	ldr	r3, [r3, #16]
 23fecba:	9302      	str	r3, [sp, #8]
 23fecbc:	bd09      	pop	{r0, r3, pc}
 23fecbe:	0000      	.short	0x0000
 23fecc0:	1007add8 	.word	0x1007add8
 23fecc4:	00000028 	.word	0x00000028

023fecc8 <network_on>:
DYNALIB_FN(5, system_net, network_on, void(network_handle_t, uint32_t, uint32_t, void*))
 23fecc8:	b509      	push	{r0, r3, lr}
 23fecca:	4804      	ldr	r0, [pc, #16]	; (23fecdc <network_on+0x14>)
 23feccc:	6800      	ldr	r0, [r0, #0]
 23fecce:	4b04      	ldr	r3, [pc, #16]	; (23fece0 <network_on+0x18>)
 23fecd0:	4403      	add	r3, r0
 23fecd2:	681b      	ldr	r3, [r3, #0]
 23fecd4:	695b      	ldr	r3, [r3, #20]
 23fecd6:	9302      	str	r3, [sp, #8]
 23fecd8:	bd09      	pop	{r0, r3, pc}
 23fecda:	0000      	.short	0x0000
 23fecdc:	1007add8 	.word	0x1007add8
 23fece0:	00000028 	.word	0x00000028

023fece4 <network_off>:
DYNALIB_FN(6, system_net, network_off, void(network_handle_t, uint32_t, uint32_t, void*))
 23fece4:	b509      	push	{r0, r3, lr}
 23fece6:	4804      	ldr	r0, [pc, #16]	; (23fecf8 <network_off+0x14>)
 23fece8:	6800      	ldr	r0, [r0, #0]
 23fecea:	4b04      	ldr	r3, [pc, #16]	; (23fecfc <network_off+0x18>)
 23fecec:	4403      	add	r3, r0
 23fecee:	681b      	ldr	r3, [r3, #0]
 23fecf0:	699b      	ldr	r3, [r3, #24]
 23fecf2:	9302      	str	r3, [sp, #8]
 23fecf4:	bd09      	pop	{r0, r3, pc}
 23fecf6:	0000      	.short	0x0000
 23fecf8:	1007add8 	.word	0x1007add8
 23fecfc:	00000028 	.word	0x00000028

023fed00 <network_listen>:
DYNALIB_FN(7, system_net, network_listen, void(network_handle_t, uint32_t, void*))
 23fed00:	b509      	push	{r0, r3, lr}
 23fed02:	4804      	ldr	r0, [pc, #16]	; (23fed14 <network_listen+0x14>)
 23fed04:	6800      	ldr	r0, [r0, #0]
 23fed06:	4b04      	ldr	r3, [pc, #16]	; (23fed18 <network_listen+0x18>)
 23fed08:	4403      	add	r3, r0
 23fed0a:	681b      	ldr	r3, [r3, #0]
 23fed0c:	69db      	ldr	r3, [r3, #28]
 23fed0e:	9302      	str	r3, [sp, #8]
 23fed10:	bd09      	pop	{r0, r3, pc}
 23fed12:	0000      	.short	0x0000
 23fed14:	1007add8 	.word	0x1007add8
 23fed18:	00000028 	.word	0x00000028

023fed1c <network_listening>:
DYNALIB_FN(8, system_net, network_listening, bool(network_handle_t, uint32_t, void*))
 23fed1c:	b509      	push	{r0, r3, lr}
 23fed1e:	4804      	ldr	r0, [pc, #16]	; (23fed30 <network_listening+0x14>)
 23fed20:	6800      	ldr	r0, [r0, #0]
 23fed22:	4b04      	ldr	r3, [pc, #16]	; (23fed34 <network_listening+0x18>)
 23fed24:	4403      	add	r3, r0
 23fed26:	681b      	ldr	r3, [r3, #0]
 23fed28:	6a1b      	ldr	r3, [r3, #32]
 23fed2a:	9302      	str	r3, [sp, #8]
 23fed2c:	bd09      	pop	{r0, r3, pc}
 23fed2e:	0000      	.short	0x0000
 23fed30:	1007add8 	.word	0x1007add8
 23fed34:	00000028 	.word	0x00000028

023fed38 <network_set_listen_timeout>:
DYNALIB_FN(9, system_net, network_has_credentials, bool(network_handle_t, uint32_t, void*))
DYNALIB_FN(10, system_net, network_set_credentials, int(network_handle_t, uint32_t, NetworkCredentials*, void*))
DYNALIB_FN(11, system_net, network_clear_credentials, bool(network_handle_t, uint32_t, NetworkCredentials*, void*))
DYNALIB_FN(12, system_net, network_set_listen_timeout, void(network_handle_t, uint16_t, void*))
 23fed38:	b509      	push	{r0, r3, lr}
 23fed3a:	4804      	ldr	r0, [pc, #16]	; (23fed4c <network_set_listen_timeout+0x14>)
 23fed3c:	6800      	ldr	r0, [r0, #0]
 23fed3e:	4b04      	ldr	r3, [pc, #16]	; (23fed50 <network_set_listen_timeout+0x18>)
 23fed40:	4403      	add	r3, r0
 23fed42:	681b      	ldr	r3, [r3, #0]
 23fed44:	6b1b      	ldr	r3, [r3, #48]	; 0x30
 23fed46:	9302      	str	r3, [sp, #8]
 23fed48:	bd09      	pop	{r0, r3, pc}
 23fed4a:	0000      	.short	0x0000
 23fed4c:	1007add8 	.word	0x1007add8
 23fed50:	00000028 	.word	0x00000028

023fed54 <network_get_listen_timeout>:
DYNALIB_FN(13, system_net, network_get_listen_timeout, uint16_t(network_handle_t, uint32_t, void*))
 23fed54:	b509      	push	{r0, r3, lr}
 23fed56:	4804      	ldr	r0, [pc, #16]	; (23fed68 <network_get_listen_timeout+0x14>)
 23fed58:	6800      	ldr	r0, [r0, #0]
 23fed5a:	4b04      	ldr	r3, [pc, #16]	; (23fed6c <network_get_listen_timeout+0x18>)
 23fed5c:	4403      	add	r3, r0
 23fed5e:	681b      	ldr	r3, [r3, #0]
 23fed60:	6b5b      	ldr	r3, [r3, #52]	; 0x34
 23fed62:	9302      	str	r3, [sp, #8]
 23fed64:	bd09      	pop	{r0, r3, pc}
 23fed66:	0000      	.short	0x0000
 23fed68:	1007add8 	.word	0x1007add8
 23fed6c:	00000028 	.word	0x00000028

023fed70 <network_is_on>:
DYNALIB_FN(14, system_net, network_set_hostname, int(network_handle_t, uint32_t, const char*, void*))
DYNALIB_FN(15, system_net, network_get_hostname, int(network_handle_t, uint32_t, char*, size_t, void*))
DYNALIB_FN(16, system_net, network_is_on, bool(network_handle_t, void*))
 23fed70:	b509      	push	{r0, r3, lr}
 23fed72:	4804      	ldr	r0, [pc, #16]	; (23fed84 <network_is_on+0x14>)
 23fed74:	6800      	ldr	r0, [r0, #0]
 23fed76:	4b04      	ldr	r3, [pc, #16]	; (23fed88 <network_is_on+0x18>)
 23fed78:	4403      	add	r3, r0
 23fed7a:	681b      	ldr	r3, [r3, #0]
 23fed7c:	6c1b      	ldr	r3, [r3, #64]	; 0x40
 23fed7e:	9302      	str	r3, [sp, #8]
 23fed80:	bd09      	pop	{r0, r3, pc}
 23fed82:	0000      	.short	0x0000
 23fed84:	1007add8 	.word	0x1007add8
 23fed88:	00000028 	.word	0x00000028

023fed8c <network_is_off>:
DYNALIB_FN(17, system_net, network_is_off, bool(network_handle_t, void*))
 23fed8c:	b509      	push	{r0, r3, lr}
 23fed8e:	4804      	ldr	r0, [pc, #16]	; (23feda0 <network_is_off+0x14>)
 23fed90:	6800      	ldr	r0, [r0, #0]
 23fed92:	4b04      	ldr	r3, [pc, #16]	; (23feda4 <network_is_off+0x18>)
 23fed94:	4403      	add	r3, r0
 23fed96:	681b      	ldr	r3, [r3, #0]
 23fed98:	6c5b      	ldr	r3, [r3, #68]	; 0x44
 23fed9a:	9302      	str	r3, [sp, #8]
 23fed9c:	bd09      	pop	{r0, r3, pc}
 23fed9e:	0000      	.short	0x0000
 23feda0:	1007add8 	.word	0x1007add8
 23feda4:	00000028 	.word	0x00000028

023feda8 <network_prefer>:
DYNALIB_FN(18, system_net, network_set_configuration, int(network_handle_t, const network_configuration_t*, void*))
DYNALIB_FN(19, system_net, network_get_configuration, int(network_handle_t, network_configuration_t**, size_t*, const char*, size_t, void*))
DYNALIB_FN(20, system_net, network_free_configuration, int(network_configuration_t*, size_t, void*))
DYNALIB_FN(21, system_net, network_prefer, network_handle_t(network_handle_t, bool, void*))
 23feda8:	b509      	push	{r0, r3, lr}
 23fedaa:	4804      	ldr	r0, [pc, #16]	; (23fedbc <network_prefer+0x14>)
 23fedac:	6800      	ldr	r0, [r0, #0]
 23fedae:	4b04      	ldr	r3, [pc, #16]	; (23fedc0 <network_prefer+0x18>)
 23fedb0:	4403      	add	r3, r0
 23fedb2:	681b      	ldr	r3, [r3, #0]
 23fedb4:	6d5b      	ldr	r3, [r3, #84]	; 0x54
 23fedb6:	9302      	str	r3, [sp, #8]
 23fedb8:	bd09      	pop	{r0, r3, pc}
 23fedba:	0000      	.short	0x0000
 23fedbc:	1007add8 	.word	0x1007add8
 23fedc0:	00000028 	.word	0x00000028

023fedc4 <network_is_preferred>:
DYNALIB_FN(22, system_net, network_is_preferred, bool(network_handle_t, void*))
 23fedc4:	b509      	push	{r0, r3, lr}
 23fedc6:	4804      	ldr	r0, [pc, #16]	; (23fedd8 <network_is_preferred+0x14>)
 23fedc8:	6800      	ldr	r0, [r0, #0]
 23fedca:	4b04      	ldr	r3, [pc, #16]	; (23feddc <network_is_preferred+0x18>)
 23fedcc:	4403      	add	r3, r0
 23fedce:	681b      	ldr	r3, [r3, #0]
 23fedd0:	6d9b      	ldr	r3, [r3, #88]	; 0x58
 23fedd2:	9302      	str	r3, [sp, #8]
 23fedd4:	bd09      	pop	{r0, r3, pc}
 23fedd6:	0000      	.short	0x0000
 23fedd8:	1007add8 	.word	0x1007add8
 23feddc:	00000028 	.word	0x00000028

023fede0 <spark_process>:

DYNALIB_BEGIN(system_cloud)

DYNALIB_FN(0, system_cloud, spark_variable, bool(const char*, const void*, Spark_Data_TypeDef, spark_variable_t*))
DYNALIB_FN(1, system_cloud, spark_function, bool(const char*, p_user_function_int_str_t, void*))
DYNALIB_FN(2, system_cloud, spark_process, bool(void))
 23fede0:	b509      	push	{r0, r3, lr}
 23fede2:	4804      	ldr	r0, [pc, #16]	; (23fedf4 <spark_process+0x14>)
 23fede4:	6800      	ldr	r0, [r0, #0]
 23fede6:	4b04      	ldr	r3, [pc, #16]	; (23fedf8 <spark_process+0x18>)
 23fede8:	4403      	add	r3, r0
 23fedea:	681b      	ldr	r3, [r3, #0]
 23fedec:	689b      	ldr	r3, [r3, #8]
 23fedee:	9302      	str	r3, [sp, #8]
 23fedf0:	bd09      	pop	{r0, r3, pc}
 23fedf2:	0000      	.short	0x0000
 23fedf4:	1007add8 	.word	0x1007add8
 23fedf8:	0000002c 	.word	0x0000002c

023fedfc <spark_set_random_seed_from_cloud_handler>:
DYNALIB_FN(10, system_cloud, spark_unsubscribe, void(void*))
DYNALIB_FN(11, system_cloud, spark_sync_time, bool(void*))
DYNALIB_FN(12, system_cloud, spark_sync_time_pending, bool(void*))
DYNALIB_FN(13, system_cloud, spark_sync_time_last, system_tick_t(time32_t*, time_t*))
DYNALIB_FN(14, system_cloud, spark_set_connection_property, int(unsigned, unsigned, const void*, void*))
DYNALIB_FN(15, system_cloud, spark_set_random_seed_from_cloud_handler, int(void (*handler)(unsigned int), void*))
 23fedfc:	b509      	push	{r0, r3, lr}
 23fedfe:	4804      	ldr	r0, [pc, #16]	; (23fee10 <spark_set_random_seed_from_cloud_handler+0x14>)
 23fee00:	6800      	ldr	r0, [r0, #0]
 23fee02:	4b04      	ldr	r3, [pc, #16]	; (23fee14 <spark_set_random_seed_from_cloud_handler+0x18>)
 23fee04:	4403      	add	r3, r0
 23fee06:	681b      	ldr	r3, [r3, #0]
 23fee08:	6bdb      	ldr	r3, [r3, #60]	; 0x3c
 23fee0a:	9302      	str	r3, [sp, #8]
 23fee0c:	bd09      	pop	{r0, r3, pc}
 23fee0e:	0000      	.short	0x0000
 23fee10:	1007add8 	.word	0x1007add8
 23fee14:	0000002c 	.word	0x0000002c

023fee18 <malloc>:
#include "hal_platform.h"
#endif // defined(DYNALIB_EXPORT) || (defined(DYNALIB_IMPORT) && !defined(RT_DYNALIB_NO_DEPENDENCY_BREAKING_IMPORTS))

DYNALIB_BEGIN(rt)

DYNALIB_FN(0, rt, malloc, void*(size_t))
 23fee18:	b509      	push	{r0, r3, lr}
 23fee1a:	4804      	ldr	r0, [pc, #16]	; (23fee2c <malloc+0x14>)
 23fee1c:	6800      	ldr	r0, [r0, #0]
 23fee1e:	4b04      	ldr	r3, [pc, #16]	; (23fee30 <malloc+0x18>)
 23fee20:	4403      	add	r3, r0
 23fee22:	681b      	ldr	r3, [r3, #0]
 23fee24:	681b      	ldr	r3, [r3, #0]
 23fee26:	9302      	str	r3, [sp, #8]
 23fee28:	bd09      	pop	{r0, r3, pc}
 23fee2a:	0000      	.short	0x0000
 23fee2c:	1007add8 	.word	0x1007add8
 23fee30:	00000004 	.word	0x00000004

023fee34 <free>:
DYNALIB_FN(1, rt, free, void(void*))
 23fee34:	b509      	push	{r0, r3, lr}
 23fee36:	4804      	ldr	r0, [pc, #16]	; (23fee48 <free+0x14>)
 23fee38:	6800      	ldr	r0, [r0, #0]
 23fee3a:	4b04      	ldr	r3, [pc, #16]	; (23fee4c <free+0x18>)
 23fee3c:	4403      	add	r3, r0
 23fee3e:	681b      	ldr	r3, [r3, #0]
 23fee40:	685b      	ldr	r3, [r3, #4]
 23fee42:	9302      	str	r3, [sp, #8]
 23fee44:	bd09      	pop	{r0, r3, pc}
 23fee46:	0000      	.short	0x0000
 23fee48:	1007add8 	.word	0x1007add8
 23fee4c:	00000004 	.word	0x00000004

023fee50 <vsnprintf>:
DYNALIB_FN(4, rt, siprintf, int(char*, const char*, ...))
DYNALIB_FN(5, rt, sscanf, int(const char*, const char*, ...))
DYNALIB_FN(6, rt, siscanf, int(const char*, const char*, ...))
DYNALIB_FN(7, rt, snprintf, int(char*, size_t, const char*, ...))
DYNALIB_FN(8, rt, sniprintf, int(char*, size_t, const char*, ...))
DYNALIB_FN(9, rt, vsnprintf, int(char*, size_t, const char*, va_list))
 23fee50:	b509      	push	{r0, r3, lr}
 23fee52:	4804      	ldr	r0, [pc, #16]	; (23fee64 <vsnprintf+0x14>)
 23fee54:	6800      	ldr	r0, [r0, #0]
 23fee56:	4b04      	ldr	r3, [pc, #16]	; (23fee68 <vsnprintf+0x18>)
 23fee58:	4403      	add	r3, r0
 23fee5a:	681b      	ldr	r3, [r3, #0]
 23fee5c:	6a5b      	ldr	r3, [r3, #36]	; 0x24
 23fee5e:	9302      	str	r3, [sp, #8]
 23fee60:	bd09      	pop	{r0, r3, pc}
 23fee62:	0000      	.short	0x0000
 23fee64:	1007add8 	.word	0x1007add8
 23fee68:	00000004 	.word	0x00000004

023fee6c <__assert_func>:
DYNALIB_FN(13, rt, _free_r, void(struct _reent*, void*))
DYNALIB_FN(14, rt, _realloc_r, void*(struct _reent*, void*, size_t))
DYNALIB_FN(15, rt, __errno, int*())

#if defined(DYNALIB_EXPORT) || (defined(DYNALIB_IMPORT) && !defined(RT_DYNALIB_NO_DEPENDENCY_BREAKING_IMPORTS))
DYNALIB_FN(16, rt, __assert_func, void(const char*, int, const char*, const char*))
 23fee6c:	b509      	push	{r0, r3, lr}
 23fee6e:	4804      	ldr	r0, [pc, #16]	; (23fee80 <__assert_func+0x14>)
 23fee70:	6800      	ldr	r0, [r0, #0]
 23fee72:	4b04      	ldr	r3, [pc, #16]	; (23fee84 <__assert_func+0x18>)
 23fee74:	4403      	add	r3, r0
 23fee76:	681b      	ldr	r3, [r3, #0]
 23fee78:	6c1b      	ldr	r3, [r3, #64]	; 0x40
 23fee7a:	9302      	str	r3, [sp, #8]
 23fee7c:	bd09      	pop	{r0, r3, pc}
 23fee7e:	0000      	.short	0x0000
 23fee80:	1007add8 	.word	0x1007add8
 23fee84:	00000004 	.word	0x00000004

023fee88 <newlib_impure_ptr_callback>:
DYNALIB_FN(17, rt, newlib_impure_ptr_callback, void(void (*)(struct _reent*, size_t, uint32_t, void*), void*))
 23fee88:	b509      	push	{r0, r3, lr}
 23fee8a:	4804      	ldr	r0, [pc, #16]	; (23fee9c <newlib_impure_ptr_callback+0x14>)
 23fee8c:	6800      	ldr	r0, [r0, #0]
 23fee8e:	4b04      	ldr	r3, [pc, #16]	; (23feea0 <newlib_impure_ptr_callback+0x18>)
 23fee90:	4403      	add	r3, r0
 23fee92:	681b      	ldr	r3, [r3, #0]
 23fee94:	6c5b      	ldr	r3, [r3, #68]	; 0x44
 23fee96:	9302      	str	r3, [sp, #8]
 23fee98:	bd09      	pop	{r0, r3, pc}
 23fee9a:	0000      	.short	0x0000
 23fee9c:	1007add8 	.word	0x1007add8
 23feea0:	00000004 	.word	0x00000004

023feea4 <_ZN5spark13EthernetClass9listeningEv>:
    uint16_t getListenTimeout(void) {
        return network_get_listen_timeout(*this, 0, NULL);
    }

    bool listening(void) {
        return network_listening(*this, 0, NULL);
 23feea4:	2200      	movs	r2, #0
 23feea6:	6840      	ldr	r0, [r0, #4]
 23feea8:	4611      	mov	r1, r2
 23feeaa:	f7ff bf37 	b.w	23fed1c <network_listening>

023feeae <_ZN5spark13EthernetClass16getListenTimeoutEv>:
        return network_get_listen_timeout(*this, 0, NULL);
 23feeae:	2200      	movs	r2, #0
 23feeb0:	6840      	ldr	r0, [r0, #4]
 23feeb2:	4611      	mov	r1, r2
 23feeb4:	f7ff bf4e 	b.w	23fed54 <network_get_listen_timeout>

023feeb8 <_ZN5spark13EthernetClass16setListenTimeoutEt>:
        network_set_listen_timeout(*this, timeout, NULL);
 23feeb8:	2200      	movs	r2, #0
 23feeba:	6840      	ldr	r0, [r0, #4]
 23feebc:	f7ff bf3c 	b.w	23fed38 <network_set_listen_timeout>

023feec0 <_ZN5spark13EthernetClass6listenEb>:
        network_listen(*this, begin ? 0 : 1, NULL);
 23feec0:	2200      	movs	r2, #0
 23feec2:	6840      	ldr	r0, [r0, #4]
 23feec4:	f081 0101 	eor.w	r1, r1, #1
 23feec8:	f7ff bf1a 	b.w	23fed00 <network_listen>

023feecc <_ZN5spark13EthernetClass3offEv>:
        network_off(*this, 0, 0, NULL);
 23feecc:	2300      	movs	r3, #0
 23feece:	6840      	ldr	r0, [r0, #4]
 23feed0:	461a      	mov	r2, r3
 23feed2:	4619      	mov	r1, r3
 23feed4:	f7ff bf06 	b.w	23fece4 <network_off>

023feed8 <_ZN5spark13EthernetClass2onEv>:
        network_on(*this, 0, 0, NULL);
 23feed8:	2300      	movs	r3, #0
 23feeda:	6840      	ldr	r0, [r0, #4]
 23feedc:	461a      	mov	r2, r3
 23feede:	4619      	mov	r1, r3
 23feee0:	f7ff bef2 	b.w	23fecc8 <network_on>

023feee4 <_ZN5spark13EthernetClass5readyEv>:
    }

    bool ready() {
        return network_ready(*this, 0,  NULL);
 23feee4:	2200      	movs	r2, #0
 23feee6:	6840      	ldr	r0, [r0, #4]
 23feee8:	4611      	mov	r1, r2
 23feeea:	f7ff bedf 	b.w	23fecac <network_ready>

023feeee <_ZN5spark13EthernetClass10connectingEv>:
        return network_connecting(*this, 0, NULL);
 23feeee:	2200      	movs	r2, #0
 23feef0:	6840      	ldr	r0, [r0, #4]
 23feef2:	4611      	mov	r1, r2
 23feef4:	f7ff bebe 	b.w	23fec74 <network_connecting>

023feef8 <_ZN5spark13EthernetClass10disconnectEv>:
        network_disconnect(*this, NETWORK_DISCONNECT_REASON_USER, NULL);
 23feef8:	2200      	movs	r2, #0
 23feefa:	2102      	movs	r1, #2
 23feefc:	6840      	ldr	r0, [r0, #4]
 23feefe:	f7ff bec7 	b.w	23fec90 <network_disconnect>

023fef02 <_ZN5spark13EthernetClass7connectEj>:
        network_connect(*this, flags, 0, NULL);
 23fef02:	2300      	movs	r3, #0
 23fef04:	6840      	ldr	r0, [r0, #4]
 23fef06:	461a      	mov	r2, r3
 23fef08:	f7ff bea6 	b.w	23fec58 <network_connect>

023fef0c <_GLOBAL__sub_I__ZN5spark8EthernetE>:
    static NetworkClass& from(network_interface_t nif);

    virtual IPAddress resolve(const char* name);

    explicit NetworkClass(network_interface_t iface)
            : iface_(iface) {
 23fef0c:	2203      	movs	r2, #3
 23fef0e:	4b02      	ldr	r3, [pc, #8]	; (23fef18 <_GLOBAL__sub_I__ZN5spark8EthernetE+0xc>)
 23fef10:	605a      	str	r2, [r3, #4]
            NetworkClass(NETWORK_INTERFACE_ETHERNET) {
 23fef12:	4a02      	ldr	r2, [pc, #8]	; (23fef1c <_GLOBAL__sub_I__ZN5spark8EthernetE+0x10>)
 23fef14:	601a      	str	r2, [r3, #0]

namespace spark {

EthernetClass Ethernet;

} // spark
 23fef16:	4770      	bx	lr
 23fef18:	1007ae80 	.word	0x1007ae80
 23fef1c:	023ffd98 	.word	0x023ffd98

023fef20 <_ZN8SPIClass6unlockEv.isra.0>:
  }

  void unlock()
  {
#if HAL_PLATFORM_SPI_HAL_THREAD_SAFETY
    hal_spi_release(_spi, nullptr);
 23fef20:	2100      	movs	r1, #0
 23fef22:	f7ff bdd5 	b.w	23fead0 <hal_spi_release>

023fef26 <_ZN8SPIClass4lockEv.isra.0>:
    return hal_spi_acquire(_spi, nullptr);
 23fef26:	2100      	movs	r1, #0
 23fef28:	f7ff bdc4 	b.w	23feab4 <hal_spi_acquire>

023fef2c <_ZN8SPIClassC1E19hal_spi_interface_t>:
    }
    return particle::SPISettings(info->clock, info->bit_order, info->data_mode);
}
} // namespace

SPIClass::SPIClass(hal_spi_interface_t spi)
 23fef2c:	b510      	push	{r4, lr}
 23fef2e:	4604      	mov	r4, r0
 23fef30:	4608      	mov	r0, r1
{
    _spi = spi;
 23fef32:	7021      	strb	r1, [r4, #0]
    hal_spi_init(_spi);
 23fef34:	f7ff fd6a 	bl	23fea0c <hal_spi_init>
    _dividerReference = SPI_CLK_SYSTEM; // 0 indicates the system clock
 23fef38:	2300      	movs	r3, #0
}
 23fef3a:	4620      	mov	r0, r4
    _dividerReference = SPI_CLK_SYSTEM; // 0 indicates the system clock
 23fef3c:	6063      	str	r3, [r4, #4]
}
 23fef3e:	bd10      	pop	{r4, pc}

023fef40 <_ZN8SPIClass16beginTransactionEv>:
    }
}

int32_t SPIClass::beginTransaction()
{
    return lock();
 23fef40:	7800      	ldrb	r0, [r0, #0]
 23fef42:	f7ff bff0 	b.w	23fef26 <_ZN8SPIClass4lockEv.isra.0>

023fef46 <_ZN8SPIClass14endTransactionEv>:
}

void SPIClass::endTransaction()
{
    // Release peripheral
    unlock();
 23fef46:	7800      	ldrb	r0, [r0, #0]
 23fef48:	f7ff bfea 	b.w	23fef20 <_ZN8SPIClass6unlockEv.isra.0>

023fef4c <_ZN8SPIClass19computeClockDividerEjjRhRj>:
    }
}

void SPIClass::computeClockDivider(unsigned reference, unsigned targetSpeed, uint8_t& divider,
                                   unsigned& clock)
{
 23fef4c:	b530      	push	{r4, r5, lr}
    clock = reference;
    uint8_t scale = 0;
    clock >>= 1; // div2 is the first
 23fef4e:	2400      	movs	r4, #0
 23fef50:	0840      	lsrs	r0, r0, #1
 23fef52:	6018      	str	r0, [r3, #0]
    while (clock > targetSpeed && scale < 7)
 23fef54:	6818      	ldr	r0, [r3, #0]
 23fef56:	b2e5      	uxtb	r5, r4
 23fef58:	4288      	cmp	r0, r1
 23fef5a:	d906      	bls.n	23fef6a <_ZN8SPIClass19computeClockDividerEjjRhRj+0x1e>
 23fef5c:	3401      	adds	r4, #1
 23fef5e:	2c08      	cmp	r4, #8
 23fef60:	d002      	beq.n	23fef68 <_ZN8SPIClass19computeClockDividerEjjRhRj+0x1c>
    {
        clock >>= 1;
 23fef62:	0840      	lsrs	r0, r0, #1
 23fef64:	6018      	str	r0, [r3, #0]
    while (clock > targetSpeed && scale < 7)
 23fef66:	e7f5      	b.n	23fef54 <_ZN8SPIClass19computeClockDividerEjjRhRj+0x8>
 23fef68:	2507      	movs	r5, #7
        scale++;
    }
    divider = clock_divisors[scale];
 23fef6a:	4b02      	ldr	r3, [pc, #8]	; (23fef74 <_ZN8SPIClass19computeClockDividerEjjRhRj+0x28>)
 23fef6c:	5d5b      	ldrb	r3, [r3, r5]
 23fef6e:	7013      	strb	r3, [r2, #0]
}
 23fef70:	bd30      	pop	{r4, r5, pc}
 23fef72:	bf00      	nop
 23fef74:	023ffdd4 	.word	0x023ffdd4

023fef78 <_ZN8SPIClass13setClockSpeedEjj>:

unsigned SPIClass::setClockSpeed(unsigned value, unsigned value_scale)
{
    unsigned clock = 0;
 23fef78:	2300      	movs	r3, #0
{
 23fef7a:	e92d 41f0 	stmdb	sp!, {r4, r5, r6, r7, r8, lr}
 23fef7e:	4604      	mov	r4, r0
 23fef80:	b088      	sub	sp, #32

    // actual speed is the system clock divided by some scalar
    unsigned targetSpeed = value * value_scale;

    if (!lock())
 23fef82:	7800      	ldrb	r0, [r0, #0]
{
 23fef84:	460e      	mov	r6, r1
 23fef86:	4617      	mov	r7, r2
    unsigned clock = 0;
 23fef88:	9302      	str	r3, [sp, #8]
    if (!lock())
 23fef8a:	f7ff ffcc 	bl	23fef26 <_ZN8SPIClass4lockEv.isra.0>
 23fef8e:	4605      	mov	r5, r0
 23fef90:	bb00      	cbnz	r0, 23fefd4 <_ZN8SPIClass13setClockSpeedEjj+0x5c>
    memset(info, 0, sizeof(hal_spi_info_t));
 23fef92:	4601      	mov	r1, r0
 23fef94:	2214      	movs	r2, #20
 23fef96:	a803      	add	r0, sp, #12
    {
        // Query SPI info
        hal_spi_info_t info;
        querySpiInfo(_spi, &info);
 23fef98:	f894 8000 	ldrb.w	r8, [r4]
    memset(info, 0, sizeof(hal_spi_info_t));
 23fef9c:	f000 fe19 	bl	23ffbd2 <memset>
    info->version = HAL_SPI_INFO_VERSION_1;
 23fefa0:	230b      	movs	r3, #11
    hal_spi_info(spi, info, nullptr);
 23fefa2:	462a      	mov	r2, r5
 23fefa4:	4640      	mov	r0, r8
 23fefa6:	a903      	add	r1, sp, #12
    info->version = HAL_SPI_INFO_VERSION_1;
 23fefa8:	f8ad 300c 	strh.w	r3, [sp, #12]
    hal_spi_info(spi, info, nullptr);
 23fefac:	f7ff fd4a 	bl	23fea44 <hal_spi_info>

        // Calculate clock divider
        uint8_t divisor = 0;
        computeClockDivider(info.system_clock, targetSpeed, divisor, clock);
 23fefb0:	fb07 f106 	mul.w	r1, r7, r6
 23fefb4:	9804      	ldr	r0, [sp, #16]
 23fefb6:	ab02      	add	r3, sp, #8
 23fefb8:	f10d 0207 	add.w	r2, sp, #7
        uint8_t divisor = 0;
 23fefbc:	f88d 5007 	strb.w	r5, [sp, #7]
        computeClockDivider(info.system_clock, targetSpeed, divisor, clock);
 23fefc0:	f7ff ffc4 	bl	23fef4c <_ZN8SPIClass19computeClockDividerEjjRhRj>

        // Update SPI peripheral
        hal_spi_set_clock_divider(_spi, divisor);
 23fefc4:	7820      	ldrb	r0, [r4, #0]
 23fefc6:	f89d 1007 	ldrb.w	r1, [sp, #7]
 23fefca:	f7ff fd11 	bl	23fe9f0 <hal_spi_set_clock_divider>
        unlock();
 23fefce:	7820      	ldrb	r0, [r4, #0]
 23fefd0:	f7ff ffa6 	bl	23fef20 <_ZN8SPIClass6unlockEv.isra.0>
    }

    return clock;
}
 23fefd4:	9802      	ldr	r0, [sp, #8]
 23fefd6:	b008      	add	sp, #32
 23fefd8:	e8bd 81f0 	ldmia.w	sp!, {r4, r5, r6, r7, r8, pc}

023fefdc <_ZN8SPIClass8transferEPKvPvjPFvvE>:
    return static_cast<byte>(hal_spi_transfer(_spi, _data));
}

void SPIClass::transfer(const void* tx_buffer, void* rx_buffer, size_t length,
                        wiring_spi_dma_transfercomplete_callback_t user_callback)
{
 23fefdc:	b530      	push	{r4, r5, lr}
 23fefde:	b087      	sub	sp, #28
 23fefe0:	9d0a      	ldr	r5, [sp, #40]	; 0x28
 23fefe2:	4604      	mov	r4, r0
    hal_spi_transfer_dma(_spi, tx_buffer, rx_buffer, length, user_callback);
 23fefe4:	9500      	str	r5, [sp, #0]
 23fefe6:	7800      	ldrb	r0, [r0, #0]
 23fefe8:	f7ff fd3a 	bl	23fea60 <hal_spi_transfer_dma>
    if (user_callback == NULL)
 23fefec:	b93d      	cbnz	r5, 23feffe <_ZN8SPIClass8transferEPKvPvjPFvvE+0x22>
    {
        hal_spi_transfer_status_t st;
        do
        {
            hal_spi_transfer_dma_status(_spi, &st);
 23fefee:	7820      	ldrb	r0, [r4, #0]
 23feff0:	a902      	add	r1, sp, #8
 23feff2:	f7ff fd51 	bl	23fea98 <hal_spi_transfer_dma_status>
        } while (st.transfer_ongoing);
 23feff6:	f89d 3014 	ldrb.w	r3, [sp, #20]
 23feffa:	07db      	lsls	r3, r3, #31
 23feffc:	d4f7      	bmi.n	23fefee <_ZN8SPIClass8transferEPKvPvjPFvvE+0x12>
    }
}
 23feffe:	b007      	add	sp, #28
 23ff000:	bd30      	pop	{r4, r5, pc}
	...

023ff004 <_GLOBAL__sub_I_System>:
} // namespace particle

// particle::Flag<TagT, ValueT>
template<typename TagT, typename ValueT>
inline particle::Flag<TagT, ValueT>::Flag(ValueT val) :
        val_(val) {
 23ff004:	2202      	movs	r2, #2

class SystemSleepResult {
public:
    SystemSleepResult()
            : wakeupSource_(nullptr),
              error_(SYSTEM_ERROR_NONE) {
 23ff006:	2000      	movs	r0, #0
 23ff008:	4b04      	ldr	r3, [pc, #16]	; (23ff01c <_GLOBAL__sub_I_System+0x18>)
 23ff00a:	601a      	str	r2, [r3, #0]
 23ff00c:	4b04      	ldr	r3, [pc, #16]	; (23ff020 <_GLOBAL__sub_I_System+0x1c>)
    SleepResult() {}
 23ff00e:	4a05      	ldr	r2, [pc, #20]	; (23ff024 <_GLOBAL__sub_I_System+0x20>)
              error_(SYSTEM_ERROR_NONE) {
 23ff010:	e9c3 0000 	strd	r0, r0, [r3]
    SleepResult() {}
 23ff014:	609a      	str	r2, [r3, #8]

class SystemClass {
public:

    SystemClass(System_Mode_TypeDef mode = DEFAULT) {
        set_system_mode(mode);
 23ff016:	f7ff bde7 	b.w	23febe8 <set_system_mode>
 23ff01a:	bf00      	nop
 23ff01c:	1007ae94 	.word	0x1007ae94
 23ff020:	1007ae88 	.word	0x1007ae88
 23ff024:	ffff0000 	.word	0xffff0000

023ff028 <_GLOBAL__sub_I__ZN8particle3ble13WiringBleLock6mutex_E>:
    /**
     * Creates a shared mutex.
     */
    RecursiveMutex(os_mutex_recursive_t handle) : handle_(handle) {}

    RecursiveMutex() : handle_(nullptr)
 23ff028:	2300      	movs	r3, #0
 23ff02a:	4802      	ldr	r0, [pc, #8]	; (23ff034 <_GLOBAL__sub_I__ZN8particle3ble13WiringBleLock6mutex_E+0xc>)
 23ff02c:	6003      	str	r3, [r0, #0]
    {
        os_mutex_recursive_create(&handle_);
 23ff02e:	f7ff bbf1 	b.w	23fe814 <os_mutex_recursive_create>
 23ff032:	bf00      	nop
 23ff034:	1007ae98 	.word	0x1007ae98

023ff038 <_ZN5Print5writeEPKhj>:

// Public Methods //////////////////////////////////////////////////////////////

/* default implementation: may be overridden */
size_t Print::write(const uint8_t *buffer, size_t size)
{
 23ff038:	b5f8      	push	{r3, r4, r5, r6, r7, lr}
 23ff03a:	4606      	mov	r6, r0
 23ff03c:	460d      	mov	r5, r1
  size_t n = 0;
 23ff03e:	2400      	movs	r4, #0
 23ff040:	188f      	adds	r7, r1, r2
  while (size--) {
 23ff042:	42bd      	cmp	r5, r7
 23ff044:	d00c      	beq.n	23ff060 <_ZN5Print5writeEPKhj+0x28>
     int chunk = write(*buffer++);
 23ff046:	6833      	ldr	r3, [r6, #0]
 23ff048:	4630      	mov	r0, r6
 23ff04a:	689b      	ldr	r3, [r3, #8]
 23ff04c:	f815 1b01 	ldrb.w	r1, [r5], #1
 23ff050:	4798      	blx	r3
     if (chunk>=0)
 23ff052:	1e03      	subs	r3, r0, #0
 23ff054:	db01      	blt.n	23ff05a <_ZN5Print5writeEPKhj+0x22>
         n += chunk;
 23ff056:	441c      	add	r4, r3
  while (size--) {
 23ff058:	e7f3      	b.n	23ff042 <_ZN5Print5writeEPKhj+0xa>
     int chunk = write(*buffer++);
 23ff05a:	2c00      	cmp	r4, #0
 23ff05c:	bf08      	it	eq
 23ff05e:	461c      	moveq	r4, r3
             n = chunk;
         break;
     }
  }
  return n;
}
 23ff060:	4620      	mov	r0, r4
 23ff062:	bdf8      	pop	{r3, r4, r5, r6, r7, pc}

023ff064 <_ZN5Print5writeEPKc>:

    int getWriteError() const { return write_error; }
    void clearWriteError() { setWriteError(0); }

    virtual size_t write(uint8_t) = 0;
    size_t write(const char *str) {
 23ff064:	b513      	push	{r0, r1, r4, lr}
 23ff066:	4604      	mov	r4, r0
      if (str == NULL) return 0;
      return write((const uint8_t *)str, strlen(str));
    }
 23ff068:	4608      	mov	r0, r1
      if (str == NULL) return 0;
 23ff06a:	b159      	cbz	r1, 23ff084 <_ZN5Print5writeEPKc+0x20>
      return write((const uint8_t *)str, strlen(str));
 23ff06c:	9101      	str	r1, [sp, #4]
 23ff06e:	f7ff f80f 	bl	23fe090 <strlen>
 23ff072:	4602      	mov	r2, r0
 23ff074:	4620      	mov	r0, r4
 23ff076:	6823      	ldr	r3, [r4, #0]
 23ff078:	9901      	ldr	r1, [sp, #4]
 23ff07a:	68db      	ldr	r3, [r3, #12]
    }
 23ff07c:	b002      	add	sp, #8
 23ff07e:	e8bd 4010 	ldmia.w	sp!, {r4, lr}
      return write((const uint8_t *)str, strlen(str));
 23ff082:	4718      	bx	r3
    }
 23ff084:	b002      	add	sp, #8
 23ff086:	bd10      	pop	{r4, pc}

023ff088 <_ZN5Print5printEc>:
  return write(str);
}

size_t Print::print(char c)
{
  return write(c);
 23ff088:	6803      	ldr	r3, [r0, #0]
 23ff08a:	689b      	ldr	r3, [r3, #8]
 23ff08c:	4718      	bx	r3

023ff08e <_ZN5Print7printlnEv>:
{
  return print(reinterpret_cast<const char*>(str));
}

size_t Print::println(void)
{
 23ff08e:	b538      	push	{r3, r4, r5, lr}
  size_t n = print('\r');
 23ff090:	210d      	movs	r1, #13
{
 23ff092:	4605      	mov	r5, r0
  size_t n = print('\r');
 23ff094:	f7ff fff8 	bl	23ff088 <_ZN5Print5printEc>
  n += print('\n');
 23ff098:	210a      	movs	r1, #10
  size_t n = print('\r');
 23ff09a:	4604      	mov	r4, r0
  n += print('\n');
 23ff09c:	4628      	mov	r0, r5
 23ff09e:	f7ff fff3 	bl	23ff088 <_ZN5Print5printEc>
  return n;
}
 23ff0a2:	4420      	add	r0, r4
 23ff0a4:	bd38      	pop	{r3, r4, r5, pc}

023ff0a6 <_ZN5Print11printNumberEmh>:

size_t Print::printNumber(unsigned long n, uint8_t base) {
  char buf[8 * sizeof(n) + 1]; // Assumes 8-bit chars plus zero byte.
  char *str = &buf[sizeof(buf) - 1];

  *str = '\0';
 23ff0a6:	2300      	movs	r3, #0

  // prevent crash if called with base == 1
  if (base < 2) base = 10;
 23ff0a8:	2a01      	cmp	r2, #1
 23ff0aa:	bf98      	it	ls
 23ff0ac:	220a      	movls	r2, #10
size_t Print::printNumber(unsigned long n, uint8_t base) {
 23ff0ae:	b530      	push	{r4, r5, lr}
 23ff0b0:	b08b      	sub	sp, #44	; 0x2c
  *str = '\0';
 23ff0b2:	f88d 3024 	strb.w	r3, [sp, #36]	; 0x24
  if (base < 2) base = 10;
 23ff0b6:	ac09      	add	r4, sp, #36	; 0x24

  do {
   decltype(n) m = n;
   n /= base;
 23ff0b8:	460d      	mov	r5, r1
 23ff0ba:	fbb1 f1f2 	udiv	r1, r1, r2
   char c = m - base * n;
 23ff0be:	fb01 5312 	mls	r3, r1, r2, r5
 23ff0c2:	f003 03ff 	and.w	r3, r3, #255	; 0xff
   *--str = c < 10 ? c + '0' : c + 'A' - 10;
 23ff0c6:	2b09      	cmp	r3, #9
 23ff0c8:	bf94      	ite	ls
 23ff0ca:	3330      	addls	r3, #48	; 0x30
 23ff0cc:	3337      	addhi	r3, #55	; 0x37
 23ff0ce:	b2db      	uxtb	r3, r3
  } while(n);
 23ff0d0:	42aa      	cmp	r2, r5
   *--str = c < 10 ? c + '0' : c + 'A' - 10;
 23ff0d2:	f804 3d01 	strb.w	r3, [r4, #-1]!
  } while(n);
 23ff0d6:	d9ef      	bls.n	23ff0b8 <_ZN5Print11printNumberEmh+0x12>

  return write(str);
 23ff0d8:	4621      	mov	r1, r4
 23ff0da:	f7ff ffc3 	bl	23ff064 <_ZN5Print5writeEPKc>
}
 23ff0de:	b00b      	add	sp, #44	; 0x2c
 23ff0e0:	bd30      	pop	{r4, r5, pc}

023ff0e2 <_ZN5Print7vprintfEbPKcSt9__va_list>:
    writeVariant(var, writer);
    return writer.bytesWritten();
}

size_t Print::vprintf(bool newline, const char* format, va_list args)
{
 23ff0e2:	e92d 41f0 	stmdb	sp!, {r4, r5, r6, r7, r8, lr}
 23ff0e6:	b086      	sub	sp, #24
 23ff0e8:	af00      	add	r7, sp, #0
 23ff0ea:	4605      	mov	r5, r0
 23ff0ec:	460e      	mov	r6, r1
    const int bufsize = 20;
    char test[bufsize];
    va_list args2;
    va_copy(args2, args);
    size_t n = vsnprintf(test, bufsize, format, args);
 23ff0ee:	1d38      	adds	r0, r7, #4
 23ff0f0:	2114      	movs	r1, #20
{
 23ff0f2:	4614      	mov	r4, r2
    va_copy(args2, args);
 23ff0f4:	603b      	str	r3, [r7, #0]
    size_t n = vsnprintf(test, bufsize, format, args);
 23ff0f6:	f7ff feab 	bl	23fee50 <vsnprintf>

    if (n<bufsize)
 23ff0fa:	2813      	cmp	r0, #19
 23ff0fc:	d80e      	bhi.n	23ff11c <_ZN5Print7vprintfEbPKcSt9__va_list+0x3a>
  return write(str);
 23ff0fe:	4628      	mov	r0, r5
 23ff100:	1d39      	adds	r1, r7, #4
 23ff102:	f7ff ffaf 	bl	23ff064 <_ZN5Print5writeEPKc>
 23ff106:	4604      	mov	r4, r0
    {
        char bigger[n+1];
        n = vsnprintf(bigger, n+1, format, args2);
        n = print(bigger);
    }
    if (newline)
 23ff108:	b11e      	cbz	r6, 23ff112 <_ZN5Print7vprintfEbPKcSt9__va_list+0x30>
        n += println();
 23ff10a:	4628      	mov	r0, r5
 23ff10c:	f7ff ffbf 	bl	23ff08e <_ZN5Print7printlnEv>
 23ff110:	4404      	add	r4, r0

    va_end(args2);
    return n;
}
 23ff112:	4620      	mov	r0, r4
 23ff114:	3718      	adds	r7, #24
 23ff116:	46bd      	mov	sp, r7
 23ff118:	e8bd 81f0 	ldmia.w	sp!, {r4, r5, r6, r7, r8, pc}
        char bigger[n+1];
 23ff11c:	f100 0308 	add.w	r3, r0, #8
 23ff120:	f023 0307 	bic.w	r3, r3, #7
        n = print(bigger);
 23ff124:	46e8      	mov	r8, sp
        char bigger[n+1];
 23ff126:	ebad 0d03 	sub.w	sp, sp, r3
        n = vsnprintf(bigger, n+1, format, args2);
 23ff12a:	4622      	mov	r2, r4
 23ff12c:	1c41      	adds	r1, r0, #1
 23ff12e:	683b      	ldr	r3, [r7, #0]
 23ff130:	4668      	mov	r0, sp
 23ff132:	f7ff fe8d 	bl	23fee50 <vsnprintf>
  return write(str);
 23ff136:	4669      	mov	r1, sp
 23ff138:	4628      	mov	r0, r5
 23ff13a:	f7ff ff93 	bl	23ff064 <_ZN5Print5writeEPKc>
 23ff13e:	4604      	mov	r4, r0
 23ff140:	46c5      	mov	sp, r8
 23ff142:	e7e1      	b.n	23ff108 <_ZN5Print7vprintfEbPKcSt9__va_list+0x26>

023ff144 <_ZN6Stream9timedReadEv>:
#define PARSE_TIMEOUT 1000  // default number of milli-seconds to wait
#define NO_SKIP_CHAR  1  // a magic char not found in a valid ASCII numeric field

// private method to read stream with timeout
int Stream::timedRead()
{
 23ff144:	b510      	push	{r4, lr}
 23ff146:	4604      	mov	r4, r0

#ifdef __cplusplus
extern "C" {
#endif

inline system_tick_t millis(void) { return HAL_Timer_Get_Milli_Seconds(); }
 23ff148:	f7ff fb48 	bl	23fe7dc <HAL_Timer_Get_Milli_Seconds>
  int c;
  _startMillis = millis();
 23ff14c:	60e0      	str	r0, [r4, #12]
  do {
    c = read();
 23ff14e:	6823      	ldr	r3, [r4, #0]
 23ff150:	4620      	mov	r0, r4
 23ff152:	695b      	ldr	r3, [r3, #20]
 23ff154:	4798      	blx	r3
    if (c >= 0) return c;
 23ff156:	2800      	cmp	r0, #0
 23ff158:	da08      	bge.n	23ff16c <_ZN6Stream9timedReadEv+0x28>
 23ff15a:	f7ff fb3f 	bl	23fe7dc <HAL_Timer_Get_Milli_Seconds>
  } while(millis() - _startMillis < _timeout);
 23ff15e:	68e3      	ldr	r3, [r4, #12]
 23ff160:	1ac0      	subs	r0, r0, r3
 23ff162:	68a3      	ldr	r3, [r4, #8]
 23ff164:	4298      	cmp	r0, r3
 23ff166:	d3f2      	bcc.n	23ff14e <_ZN6Stream9timedReadEv+0xa>
  return -1;     // -1 indicates timeout
 23ff168:	f04f 30ff 	mov.w	r0, #4294967295
}
 23ff16c:	bd10      	pop	{r4, pc}

023ff16e <_ZN6Stream9readBytesEPcj>:
// terminates if length characters have been read, or timeout (see setTimeout)
// returns the number of characters placed in the buffer
// the buffer is NOT null terminated.
//
size_t Stream::readBytes(char *buffer, size_t length)
{
 23ff16e:	e92d 41f0 	stmdb	sp!, {r4, r5, r6, r7, r8, lr}
 23ff172:	4607      	mov	r7, r0
 23ff174:	460c      	mov	r4, r1
 23ff176:	460d      	mov	r5, r1
 23ff178:	188e      	adds	r6, r1, r2
  size_t count = 0;
  while (count < length) {
 23ff17a:	42b5      	cmp	r5, r6
 23ff17c:	eba5 0804 	sub.w	r8, r5, r4
 23ff180:	d007      	beq.n	23ff192 <_ZN6Stream9readBytesEPcj+0x24>
    int c = timedRead();
 23ff182:	4638      	mov	r0, r7
 23ff184:	f7ff ffde 	bl	23ff144 <_ZN6Stream9timedReadEv>
    if (c < 0) break;
 23ff188:	1e03      	subs	r3, r0, #0
 23ff18a:	db02      	blt.n	23ff192 <_ZN6Stream9readBytesEPcj+0x24>
    *buffer++ = (char)c;
 23ff18c:	f805 3b01 	strb.w	r3, [r5], #1
  while (count < length) {
 23ff190:	e7f3      	b.n	23ff17a <_ZN6Stream9readBytesEPcj+0xc>
    count++;
  }
  return count;
}
 23ff192:	4640      	mov	r0, r8
 23ff194:	e8bd 81f0 	ldmia.w	sp!, {r4, r5, r6, r7, r8, pc}

023ff198 <_GLOBAL__sub_I__ZN5spark3LogE>:
    // This handler doesn't support direct logging
}

// spark::Logger
inline spark::Logger::Logger(const char *name) :
        name_(name) {
 23ff198:	4b01      	ldr	r3, [pc, #4]	; (23ff1a0 <_GLOBAL__sub_I__ZN5spark3LogE+0x8>)
 23ff19a:	4a02      	ldr	r2, [pc, #8]	; (23ff1a4 <_GLOBAL__sub_I__ZN5spark3LogE+0xc>)
 23ff19c:	601a      	str	r2, [r3, #0]
#if Wiring_LogConfig

// spark::
void spark::logProcessControlRequest(ctrl_request* req) {
    JSONRequestHandler::process(req);
}
 23ff19e:	4770      	bx	lr
 23ff1a0:	1007ae9c 	.word	0x1007ae9c
 23ff1a4:	023ffddc 	.word	0x023ffddc

023ff1a8 <_GLOBAL__sub_I_TIME_FORMAT_DEFAULT>:
            calendar_time_cache = Convert_UnixTime_To_CalendarTime(unix_time);
            unix_time_cache = unix_time;
    }
}

const char* TimeClass::format_spec = TIME_FORMAT_DEFAULT;
 23ff1a8:	4b02      	ldr	r3, [pc, #8]	; (23ff1b4 <_GLOBAL__sub_I_TIME_FORMAT_DEFAULT+0xc>)
 23ff1aa:	681a      	ldr	r2, [r3, #0]
 23ff1ac:	4b02      	ldr	r3, [pc, #8]	; (23ff1b8 <_GLOBAL__sub_I_TIME_FORMAT_DEFAULT+0x10>)
 23ff1ae:	601a      	str	r2, [r3, #0]
{
  return isValid();
}


TimeClass Time;
 23ff1b0:	4770      	bx	lr
 23ff1b2:	bf00      	nop
 23ff1b4:	1007addc 	.word	0x1007addc
 23ff1b8:	1007aea0 	.word	0x1007aea0

023ff1bc <delay>:
    return (value - fromStart) * (toEnd - toStart) / (fromEnd - fromStart) + toStart;
}

void delay(unsigned long ms)
{
    system_delay_ms(ms, false);
 23ff1bc:	2100      	movs	r1, #0
 23ff1be:	f7ff bd21 	b.w	23fec04 <system_delay_ms>
	...

023ff1c4 <_GLOBAL__sub_I_RGB>:
	static void
	_M_init_functor(_Any_data& __functor, _Functor&& __f, false_type)
	{ __functor._M_access<_Functor*>() = new _Functor(std::move(__f)); }
      };

    _Function_base() : _M_manager(nullptr) { }
 23ff1c4:	2200      	movs	r2, #0
 23ff1c6:	4b01      	ldr	r3, [pc, #4]	; (23ff1cc <_GLOBAL__sub_I_RGB+0x8>)
 23ff1c8:	609a      	str	r2, [r3, #8]
{
    RGBClass* const d = static_cast<RGBClass*>(data);
    if (d->changeHandler_) {
        d->changeHandler_(r, g, b);
    }
}
 23ff1ca:	4770      	bx	lr
 23ff1cc:	1007aea4 	.word	0x1007aea4

023ff1d0 <_ZZ21module_user_init_hookENUlP6_reentjmPvE_4_FUNES0_jmS1_>:

void module_user_init_hook()
{
#if HAL_PLATFORM_NEWLIB
    newlib_impure_ptr_callback([](struct _reent* r, size_t size, uint32_t version, void* ctx) -> void {
        _impure_ptr = r;
 23ff1d0:	4b01      	ldr	r3, [pc, #4]	; (23ff1d8 <_ZZ21module_user_init_hookENUlP6_reentjmPvE_4_FUNES0_jmS1_+0x8>)
 23ff1d2:	6018      	str	r0, [r3, #0]
    }, nullptr);
 23ff1d4:	4770      	bx	lr
 23ff1d6:	bf00      	nop
 23ff1d8:	1007ade0 	.word	0x1007ade0

023ff1dc <serialEventRun>:
{
 23ff1dc:	b508      	push	{r3, lr}
    if (serialEvent && Serial.available()>0)
 23ff1de:	4b0f      	ldr	r3, [pc, #60]	; (23ff21c <serialEventRun+0x40>)
 23ff1e0:	b143      	cbz	r3, 23ff1f4 <serialEventRun+0x18>
 23ff1e2:	f000 f977 	bl	23ff4d4 <_Z16_fetch_usbserialv>
 23ff1e6:	6803      	ldr	r3, [r0, #0]
 23ff1e8:	691b      	ldr	r3, [r3, #16]
 23ff1ea:	4798      	blx	r3
 23ff1ec:	2800      	cmp	r0, #0
 23ff1ee:	dd01      	ble.n	23ff1f4 <serialEventRun+0x18>
        serialEvent();
 23ff1f0:	e000      	b.n	23ff1f4 <serialEventRun+0x18>
 23ff1f2:	bf00      	nop
    if (serialEvent1 && Serial1.available()>0)
 23ff1f4:	4b0a      	ldr	r3, [pc, #40]	; (23ff220 <serialEventRun+0x44>)
 23ff1f6:	b143      	cbz	r3, 23ff20a <serialEventRun+0x2e>
 23ff1f8:	f000 fc06 	bl	23ffa08 <_Z22__fetch_global_Serial1v>
 23ff1fc:	6803      	ldr	r3, [r0, #0]
 23ff1fe:	691b      	ldr	r3, [r3, #16]
 23ff200:	4798      	blx	r3
 23ff202:	2800      	cmp	r0, #0
 23ff204:	dd01      	ble.n	23ff20a <serialEventRun+0x2e>
        serialEvent1();
 23ff206:	e000      	b.n	23ff20a <serialEventRun+0x2e>
 23ff208:	bf00      	nop
    if (serialEvent2) serialEventRun2();
 23ff20a:	4b06      	ldr	r3, [pc, #24]	; (23ff224 <serialEventRun+0x48>)
 23ff20c:	b10b      	cbz	r3, 23ff212 <serialEventRun+0x36>
 23ff20e:	f000 fc41 	bl	23ffa94 <_Z15serialEventRun2v>
    if (serialEvent3) serialEventRun3();
 23ff212:	4b05      	ldr	r3, [pc, #20]	; (23ff228 <serialEventRun+0x4c>)
 23ff214:	b10b      	cbz	r3, 23ff21a <serialEventRun+0x3e>
 23ff216:	f000 fc73 	bl	23ffb00 <_Z15serialEventRun3v>
}
 23ff21a:	bd08      	pop	{r3, pc}
	...

023ff22c <_post_loop>:
{
 23ff22c:	b508      	push	{r3, lr}
	serialEventRun();
 23ff22e:	f7ff ffd5 	bl	23ff1dc <serialEventRun>
		return !thread || !thread->isRunning();
	}

	static inline system_tick_t current_time()
	{
		return HAL_Timer_Get_Milli_Seconds();
 23ff232:	f7ff fad3 	bl	23fe7dc <HAL_Timer_Get_Milli_Seconds>
	/**
	 * Lifesign that the application is still working normally.
	 */
	static void checkin()
	{
		last_checkin = current_time();
 23ff236:	4b01      	ldr	r3, [pc, #4]	; (23ff23c <_post_loop+0x10>)
 23ff238:	6018      	str	r0, [r3, #0]
}
 23ff23a:	bd08      	pop	{r3, pc}
 23ff23c:	1007af4c 	.word	0x1007af4c

023ff240 <_Z33system_initialize_user_backup_ramv>:
    memcpy(&link_global_retained_start, &link_global_retained_initial_values, len);
 23ff240:	4805      	ldr	r0, [pc, #20]	; (23ff258 <_Z33system_initialize_user_backup_ramv+0x18>)
 23ff242:	4a06      	ldr	r2, [pc, #24]	; (23ff25c <_Z33system_initialize_user_backup_ramv+0x1c>)
{
 23ff244:	b508      	push	{r3, lr}
    memcpy(&link_global_retained_start, &link_global_retained_initial_values, len);
 23ff246:	1a12      	subs	r2, r2, r0
 23ff248:	4905      	ldr	r1, [pc, #20]	; (23ff260 <_Z33system_initialize_user_backup_ramv+0x20>)
 23ff24a:	f000 fcb5 	bl	23ffbb8 <memcpy>
    __backup_sram_signature = signature;
 23ff24e:	4b05      	ldr	r3, [pc, #20]	; (23ff264 <_Z33system_initialize_user_backup_ramv+0x24>)
 23ff250:	4a05      	ldr	r2, [pc, #20]	; (23ff268 <_Z33system_initialize_user_backup_ramv+0x28>)
 23ff252:	601a      	str	r2, [r3, #0]
}
 23ff254:	bd08      	pop	{r3, pc}
 23ff256:	bf00      	nop
 23ff258:	1007b400 	.word	0x1007b400
 23ff25c:	1007b404 	.word	0x1007b404
 23ff260:	085ff088 	.word	0x085ff088
 23ff264:	1007b400 	.word	0x1007b400
 23ff268:	9a271c1e 	.word	0x9a271c1e

023ff26c <_Z27ctrl_request_custom_handlerP12ctrl_request>:
    system_ctrl_set_result(req, SYSTEM_ERROR_NOT_SUPPORTED, nullptr, nullptr, nullptr);
 23ff26c:	2300      	movs	r3, #0
void __attribute((weak)) ctrl_request_custom_handler(ctrl_request* req) {
 23ff26e:	b507      	push	{r0, r1, r2, lr}
    system_ctrl_set_result(req, SYSTEM_ERROR_NOT_SUPPORTED, nullptr, nullptr, nullptr);
 23ff270:	461a      	mov	r2, r3
 23ff272:	f06f 0177 	mvn.w	r1, #119	; 0x77
 23ff276:	9300      	str	r3, [sp, #0]
 23ff278:	f7ff fce0 	bl	23fec3c <system_ctrl_set_result>
}
 23ff27c:	b003      	add	sp, #12
 23ff27e:	f85d fb04 	ldr.w	pc, [sp], #4
	...

023ff284 <_ZL20ctrl_request_handlerP12ctrl_request>:
static void ctrl_request_handler(ctrl_request* req) {
 23ff284:	b507      	push	{r0, r1, r2, lr}
    switch (req->type) {
 23ff286:	8843      	ldrh	r3, [r0, #2]
 23ff288:	2b0a      	cmp	r3, #10
 23ff28a:	d008      	beq.n	23ff29e <_ZL20ctrl_request_handlerP12ctrl_request+0x1a>
 23ff28c:	2b50      	cmp	r3, #80	; 0x50
 23ff28e:	d10b      	bne.n	23ff2a8 <_ZL20ctrl_request_handlerP12ctrl_request+0x24>
        if (log_process_ctrl_request_callback) {
 23ff290:	4b09      	ldr	r3, [pc, #36]	; (23ff2b8 <_ZL20ctrl_request_handlerP12ctrl_request+0x34>)
 23ff292:	681b      	ldr	r3, [r3, #0]
 23ff294:	b14b      	cbz	r3, 23ff2aa <_ZL20ctrl_request_handlerP12ctrl_request+0x26>
}
 23ff296:	b003      	add	sp, #12
 23ff298:	f85d eb04 	ldr.w	lr, [sp], #4
            log_process_ctrl_request_callback(req);
 23ff29c:	4718      	bx	r3
        ctrl_request_custom_handler(req);
 23ff29e:	f7ff ffe5 	bl	23ff26c <_Z27ctrl_request_custom_handlerP12ctrl_request>
}
 23ff2a2:	b003      	add	sp, #12
 23ff2a4:	f85d fb04 	ldr.w	pc, [sp], #4
        system_ctrl_set_result(req, SYSTEM_ERROR_NOT_SUPPORTED, nullptr, nullptr, nullptr);
 23ff2a8:	2300      	movs	r3, #0
 23ff2aa:	461a      	mov	r2, r3
 23ff2ac:	f06f 0177 	mvn.w	r1, #119	; 0x77
 23ff2b0:	9300      	str	r3, [sp, #0]
 23ff2b2:	f7ff fcc3 	bl	23fec3c <system_ctrl_set_result>
}
 23ff2b6:	e7f4      	b.n	23ff2a2 <_ZL20ctrl_request_handlerP12ctrl_request+0x1e>
 23ff2b8:	1007aeb8 	.word	0x1007aeb8

023ff2bc <module_user_init_hook>:
    newlib_impure_ptr_callback([](struct _reent* r, size_t size, uint32_t version, void* ctx) -> void {
 23ff2bc:	2100      	movs	r1, #0
{
 23ff2be:	b510      	push	{r4, lr}
    newlib_impure_ptr_callback([](struct _reent* r, size_t size, uint32_t version, void* ctx) -> void {
 23ff2c0:	4811      	ldr	r0, [pc, #68]	; (23ff308 <module_user_init_hook+0x4c>)
 23ff2c2:	f7ff fde1 	bl	23fee88 <newlib_impure_ptr_callback>
#endif // HAL_PLATFORM_NEWLIB

#if HAL_PLATFORM_BACKUP_RAM
    backup_ram_was_valid_ = __backup_sram_signature == signature;
 23ff2c6:	4b11      	ldr	r3, [pc, #68]	; (23ff30c <module_user_init_hook+0x50>)
 23ff2c8:	681a      	ldr	r2, [r3, #0]
 23ff2ca:	4b11      	ldr	r3, [pc, #68]	; (23ff310 <module_user_init_hook+0x54>)
 23ff2cc:	429a      	cmp	r2, r3
 23ff2ce:	bf0c      	ite	eq
 23ff2d0:	2201      	moveq	r2, #1
 23ff2d2:	2200      	movne	r2, #0
 23ff2d4:	4b0f      	ldr	r3, [pc, #60]	; (23ff314 <module_user_init_hook+0x58>)
 23ff2d6:	701a      	strb	r2, [r3, #0]
    if (!backup_ram_was_valid_) {
 23ff2d8:	d001      	beq.n	23ff2de <module_user_init_hook+0x22>
        system_initialize_user_backup_ram();
 23ff2da:	f7ff ffb1 	bl	23ff240 <_Z33system_initialize_user_backup_ramv>
    }
#endif

#if HAL_PLATFORM_RNG
    // Initialize the default stdlib PRNG using hardware RNG as a seed
    const uint32_t seed = HAL_RNG_GetRandomNumber();
 23ff2de:	f7ff fa61 	bl	23fe7a4 <HAL_RNG_GetRandomNumber>
 23ff2e2:	4604      	mov	r4, r0
    srand(seed);
 23ff2e4:	f000 fc7e 	bl	23ffbe4 <srand>

    // If the user defines random_seed_from_cloud, call it with a seed value
    // generated by a hardware RNG as well.
    if (random_seed_from_cloud) {
 23ff2e8:	4b0b      	ldr	r3, [pc, #44]	; (23ff318 <module_user_init_hook+0x5c>)
 23ff2ea:	b113      	cbz	r3, 23ff2f2 <module_user_init_hook+0x36>
        random_seed_from_cloud(seed);
 23ff2ec:	4620      	mov	r0, r4
 23ff2ee:	e000      	b.n	23ff2f2 <module_user_init_hook+0x36>
 23ff2f0:	bf00      	nop
    }
#endif
    // Register the random_seed_from_cloud handler
    spark_set_random_seed_from_cloud_handler(&random_seed_from_cloud, nullptr);
 23ff2f2:	2100      	movs	r1, #0
 23ff2f4:	4808      	ldr	r0, [pc, #32]	; (23ff318 <module_user_init_hook+0x5c>)
 23ff2f6:	f7ff fd81 	bl	23fedfc <spark_set_random_seed_from_cloud_handler>

    // Register application handler for the control requests
    system_ctrl_set_app_request_handler(ctrl_request_handler, nullptr);
}
 23ff2fa:	e8bd 4010 	ldmia.w	sp!, {r4, lr}
    system_ctrl_set_app_request_handler(ctrl_request_handler, nullptr);
 23ff2fe:	2100      	movs	r1, #0
 23ff300:	4806      	ldr	r0, [pc, #24]	; (23ff31c <module_user_init_hook+0x60>)
 23ff302:	f7ff bc8d 	b.w	23fec20 <system_ctrl_set_app_request_handler>
 23ff306:	bf00      	nop
 23ff308:	023ff1d1 	.word	0x023ff1d1
 23ff30c:	1007b400 	.word	0x1007b400
 23ff310:	9a271c1e 	.word	0x9a271c1e
 23ff314:	1007aeb4 	.word	0x1007aeb4
 23ff318:	00000000 	.word	0x00000000
 23ff31c:	023ff285 	.word	0x023ff285

023ff320 <_ZN9IPAddressD1Ev>:
    IPAddress(uint32_t address);
    // 4 bytes defining the IP address in network order
    IPAddress(const uint8_t* address);
    IPAddress(const HAL_IPAddress& address);

    virtual ~IPAddress() {}
 23ff320:	4770      	bx	lr

023ff322 <_ZN9IPAddressD0Ev>:
 23ff322:	b510      	push	{r4, lr}
 23ff324:	4604      	mov	r4, r0
 23ff326:	2118      	movs	r1, #24
 23ff328:	f7fe fed9 	bl	23fe0de <_ZdlPvj>
 23ff32c:	4620      	mov	r0, r4
 23ff32e:	bd10      	pop	{r4, pc}

023ff330 <_ZNK9IPAddress7printToER5Print>:
#endif // Wiring_IPv6
	return address.ipv4==that.address.ipv4;
}

size_t IPAddress::printTo(Print& p) const
{
 23ff330:	b5f0      	push	{r4, r5, r6, r7, lr}
#if Wiring_IPv6
#if HAL_USE_INET_HAL_POSIX
	if (address.v==6) {
 23ff332:	7d03      	ldrb	r3, [r0, #20]
{
 23ff334:	460e      	mov	r6, r1
	if (address.v==6) {
 23ff336:	2b06      	cmp	r3, #6
 23ff338:	f04f 0400 	mov.w	r4, #0
{
 23ff33c:	b08d      	sub	sp, #52	; 0x34
		char buf[INET6_ADDRSTRLEN+1];
		buf[0] = 0;
		inet_inet_ntop(AF_INET6, address.ipv6, buf, sizeof(buf));
 23ff33e:	f100 0704 	add.w	r7, r0, #4
	if (address.v==6) {
 23ff342:	d012      	beq.n	23ff36a <_ZNK9IPAddress7printToER5Print+0x3a>
 23ff344:	f100 0508 	add.w	r5, r0, #8
            val = n;
        }
#if __GNUC__ >= 9
#pragma GCC diagnostic pop
#endif // __GNUC__ >= 9
        return printNumber(val, base) + t;
 23ff348:	f815 1d01 	ldrb.w	r1, [r5, #-1]!
 23ff34c:	220a      	movs	r2, #10
 23ff34e:	4630      	mov	r0, r6
 23ff350:	f7ff fea9 	bl	23ff0a6 <_ZN5Print11printNumberEmh>
#else
#pragma message "HAL_USE_INET_HAL_POSIX is required for IPv6 support in IPAddress::printTo()"
#endif // HAL_USE_INET_HAL_POSIX
#endif // Wiring_IPv6
    size_t n = 0;
    for (int i = 0; i < 4; i++)
 23ff354:	42af      	cmp	r7, r5
    {
        if (n)
            n += p.print('.');
        n += p.print((*this)[i], DEC);
 23ff356:	4404      	add	r4, r0
    for (int i = 0; i < 4; i++)
 23ff358:	d019      	beq.n	23ff38e <_ZNK9IPAddress7printToER5Print+0x5e>
        if (n)
 23ff35a:	2c00      	cmp	r4, #0
 23ff35c:	d0f4      	beq.n	23ff348 <_ZNK9IPAddress7printToER5Print+0x18>
            n += p.print('.');
 23ff35e:	212e      	movs	r1, #46	; 0x2e
 23ff360:	4630      	mov	r0, r6
 23ff362:	f7ff fe91 	bl	23ff088 <_ZN5Print5printEc>
 23ff366:	4404      	add	r4, r0
 23ff368:	e7ee      	b.n	23ff348 <_ZNK9IPAddress7printToER5Print+0x18>
		inet_inet_ntop(AF_INET6, address.ipv6, buf, sizeof(buf));
 23ff36a:	232f      	movs	r3, #47	; 0x2f
 23ff36c:	466a      	mov	r2, sp
 23ff36e:	4639      	mov	r1, r7
 23ff370:	200a      	movs	r0, #10
		buf[0] = 0;
 23ff372:	f88d 4000 	strb.w	r4, [sp]
		inet_inet_ntop(AF_INET6, address.ipv6, buf, sizeof(buf));
 23ff376:	f7ff fa5b 	bl	23fe830 <inet_inet_ntop>
      return write((const uint8_t *)str, strlen(str));
 23ff37a:	4668      	mov	r0, sp
 23ff37c:	f7fe fe88 	bl	23fe090 <strlen>
 23ff380:	6833      	ldr	r3, [r6, #0]
 23ff382:	4602      	mov	r2, r0
 23ff384:	4669      	mov	r1, sp
 23ff386:	4630      	mov	r0, r6
 23ff388:	68db      	ldr	r3, [r3, #12]
 23ff38a:	4798      	blx	r3
 23ff38c:	4604      	mov	r4, r0
    }
    return n;
}
 23ff38e:	4620      	mov	r0, r4
 23ff390:	b00d      	add	sp, #52	; 0x34
 23ff392:	bdf0      	pop	{r4, r5, r6, r7, pc}

023ff394 <_ZN9IPAddressC1Ev>:
IPAddress::IPAddress()
 23ff394:	b510      	push	{r4, lr}
 23ff396:	4604      	mov	r4, r0
 23ff398:	4b04      	ldr	r3, [pc, #16]	; (23ff3ac <_ZN9IPAddressC1Ev+0x18>)
        return address;
    }

    virtual size_t printTo(Print& p) const;

    void clear() { memset(&address, 0, sizeof (address)); }
 23ff39a:	2211      	movs	r2, #17
 23ff39c:	2100      	movs	r1, #0
 23ff39e:	f840 3b04 	str.w	r3, [r0], #4
 23ff3a2:	f000 fc16 	bl	23ffbd2 <memset>
}
 23ff3a6:	4620      	mov	r0, r4
 23ff3a8:	bd10      	pop	{r4, pc}
 23ff3aa:	bf00      	nop
 23ff3ac:	023ffe04 	.word	0x023ffe04

023ff3b0 <_ZN9IPAddressC1ERK16_HAL_IPAddress_t>:
IPAddress::IPAddress(const HAL_IPAddress& address)
 23ff3b0:	4603      	mov	r3, r0
 23ff3b2:	4a07      	ldr	r2, [pc, #28]	; (23ff3d0 <_ZN9IPAddressC1ERK16_HAL_IPAddress_t+0x20>)
 23ff3b4:	b510      	push	{r4, lr}
 23ff3b6:	f843 2b04 	str.w	r2, [r3], #4
    memcpy(&this->address, &address, sizeof(address));
 23ff3ba:	f101 0210 	add.w	r2, r1, #16
 23ff3be:	f851 4b04 	ldr.w	r4, [r1], #4
 23ff3c2:	4291      	cmp	r1, r2
 23ff3c4:	f843 4b04 	str.w	r4, [r3], #4
 23ff3c8:	d1f9      	bne.n	23ff3be <_ZN9IPAddressC1ERK16_HAL_IPAddress_t+0xe>
 23ff3ca:	780a      	ldrb	r2, [r1, #0]
 23ff3cc:	701a      	strb	r2, [r3, #0]
}
 23ff3ce:	bd10      	pop	{r4, pc}
 23ff3d0:	023ffe04 	.word	0x023ffe04

023ff3d4 <_ZN9IPAddress8set_ipv4Ehhhh>:
{
 23ff3d4:	b510      	push	{r4, lr}
    address.ipv4 = b0<<24 | b1 << 16 | b2 << 8 | b3;
 23ff3d6:	f89d 4008 	ldrb.w	r4, [sp, #8]
 23ff3da:	ea44 2303 	orr.w	r3, r4, r3, lsl #8
 23ff3de:	ea43 4202 	orr.w	r2, r3, r2, lsl #16
        address.v = version;
 23ff3e2:	2304      	movs	r3, #4
 23ff3e4:	ea42 6101 	orr.w	r1, r2, r1, lsl #24
 23ff3e8:	6041      	str	r1, [r0, #4]
 23ff3ea:	7503      	strb	r3, [r0, #20]
}
 23ff3ec:	bd10      	pop	{r4, pc}
	...

023ff3f0 <_ZN9IPAddressC1EPKh>:
IPAddress::IPAddress(const uint8_t* addr)
 23ff3f0:	b507      	push	{r0, r1, r2, lr}
 23ff3f2:	4b06      	ldr	r3, [pc, #24]	; (23ff40c <_ZN9IPAddressC1EPKh+0x1c>)
 23ff3f4:	6003      	str	r3, [r0, #0]
    set_ipv4(addr[0], addr[1], addr[2], addr[3]);
 23ff3f6:	78cb      	ldrb	r3, [r1, #3]
 23ff3f8:	9300      	str	r3, [sp, #0]
 23ff3fa:	788b      	ldrb	r3, [r1, #2]
 23ff3fc:	784a      	ldrb	r2, [r1, #1]
 23ff3fe:	7809      	ldrb	r1, [r1, #0]
 23ff400:	f7ff ffe8 	bl	23ff3d4 <_ZN9IPAddress8set_ipv4Ehhhh>
}
 23ff404:	b003      	add	sp, #12
 23ff406:	f85d fb04 	ldr.w	pc, [sp], #4
 23ff40a:	bf00      	nop
 23ff40c:	023ffe04 	.word	0x023ffe04

023ff410 <_ZN9USBSerial14blockOnOverrunEb>:
  HAL_USB_USART_Flush_Data(_serial);
}

void USBSerial::blockOnOverrun(bool block)
{
  _blocking = block;
 23ff410:	7441      	strb	r1, [r0, #17]
}
 23ff412:	4770      	bx	lr

023ff414 <__tcf_0>:
}

USBSerial& _fetch_usbserial()
{
  HAL_USB_USART_Config conf = acquireSerialBuffer();
	static USBSerial _usbserial(HAL_USB_USART_SERIAL, conf);
 23ff414:	4770      	bx	lr

023ff416 <_ZN9USBSerialD1Ev>:
#include "usb_hal.h"
#include "system_task.h"
#include "spark_wiring_startup.h"
#include "concurrent_hal.h"

class USBSerial : public Stream
 23ff416:	4770      	bx	lr

023ff418 <_ZN9USBSerial4readEv>:
{
 23ff418:	b508      	push	{r3, lr}
	return std::max(-1, (int)HAL_USB_USART_Receive_Data(_serial, false));
 23ff41a:	2100      	movs	r1, #0
 23ff41c:	7c00      	ldrb	r0, [r0, #16]
 23ff41e:	f7ff fb9d 	bl	23feb5c <HAL_USB_USART_Receive_Data>
}
 23ff422:	ea40 70e0 	orr.w	r0, r0, r0, asr #31
 23ff426:	bd08      	pop	{r3, pc}

023ff428 <_ZN9USBSerial4peekEv>:
{
 23ff428:	b508      	push	{r3, lr}
	return std::max(-1, (int)HAL_USB_USART_Receive_Data(_serial, true));
 23ff42a:	2101      	movs	r1, #1
 23ff42c:	7c00      	ldrb	r0, [r0, #16]
 23ff42e:	f7ff fb95 	bl	23feb5c <HAL_USB_USART_Receive_Data>
}
 23ff432:	ea40 70e0 	orr.w	r0, r0, r0, asr #31
 23ff436:	bd08      	pop	{r3, pc}

023ff438 <_ZN9USBSerial17availableForWriteEv>:
{
 23ff438:	b508      	push	{r3, lr}
  return std::max(0, (int)HAL_USB_USART_Available_Data_For_Write(_serial));
 23ff43a:	7c00      	ldrb	r0, [r0, #16]
 23ff43c:	f7ff fb80 	bl	23feb40 <HAL_USB_USART_Available_Data_For_Write>
}
 23ff440:	ea20 70e0 	bic.w	r0, r0, r0, asr #31
 23ff444:	bd08      	pop	{r3, pc}

023ff446 <_ZN9USBSerial9availableEv>:
{
 23ff446:	b508      	push	{r3, lr}
	return std::max(0, (int)HAL_USB_USART_Available_Data(_serial));
 23ff448:	7c00      	ldrb	r0, [r0, #16]
 23ff44a:	f7ff fb6b 	bl	23feb24 <HAL_USB_USART_Available_Data>
}
 23ff44e:	ea20 70e0 	bic.w	r0, r0, r0, asr #31
 23ff452:	bd08      	pop	{r3, pc}

023ff454 <_ZN9USBSerial5writeEh>:
{
 23ff454:	b513      	push	{r0, r1, r4, lr}
 23ff456:	4604      	mov	r4, r0
  if (HAL_USB_USART_Available_Data_For_Write(_serial) > 0 || _blocking) {
 23ff458:	7c00      	ldrb	r0, [r0, #16]
{
 23ff45a:	9101      	str	r1, [sp, #4]
  if (HAL_USB_USART_Available_Data_For_Write(_serial) > 0 || _blocking) {
 23ff45c:	f7ff fb70 	bl	23feb40 <HAL_USB_USART_Available_Data_For_Write>
 23ff460:	2800      	cmp	r0, #0
 23ff462:	9901      	ldr	r1, [sp, #4]
 23ff464:	dc01      	bgt.n	23ff46a <_ZN9USBSerial5writeEh+0x16>
 23ff466:	7c60      	ldrb	r0, [r4, #17]
 23ff468:	b120      	cbz	r0, 23ff474 <_ZN9USBSerial5writeEh+0x20>
    return std::max(0, (int)HAL_USB_USART_Send_Data(_serial, byte));
 23ff46a:	7c20      	ldrb	r0, [r4, #16]
 23ff46c:	f7ff fb84 	bl	23feb78 <HAL_USB_USART_Send_Data>
 23ff470:	ea20 70e0 	bic.w	r0, r0, r0, asr #31
}
 23ff474:	b002      	add	sp, #8
 23ff476:	bd10      	pop	{r4, pc}

023ff478 <_ZN9USBSerial5flushEv>:
  HAL_USB_USART_Flush_Data(_serial);
 23ff478:	7c00      	ldrb	r0, [r0, #16]
 23ff47a:	f7ff bb8b 	b.w	23feb94 <HAL_USB_USART_Flush_Data>

023ff47e <_ZN9USBSerialD0Ev>:
 23ff47e:	b510      	push	{r4, lr}
 23ff480:	4604      	mov	r4, r0
 23ff482:	2114      	movs	r1, #20
 23ff484:	f7fe fe2b 	bl	23fe0de <_ZdlPvj>
 23ff488:	4620      	mov	r0, r4
 23ff48a:	bd10      	pop	{r4, pc}

023ff48c <_ZN9USBSerialC1E20HAL_USB_USART_SerialRK20HAL_USB_USART_Config>:
USBSerial::USBSerial(HAL_USB_USART_Serial serial, const HAL_USB_USART_Config& conf)
 23ff48c:	b510      	push	{r4, lr}
    virtual int available() = 0;
    virtual int read() = 0;
    virtual int peek() = 0;
    virtual void flush() = 0;

    Stream() {_timeout=1000;}
 23ff48e:	f44f 737a 	mov.w	r3, #1000	; 0x3e8
 23ff492:	4604      	mov	r4, r0
 23ff494:	4608      	mov	r0, r1
 23ff496:	2100      	movs	r1, #0
 23ff498:	e9c4 1301 	strd	r1, r3, [r4, #4]
 23ff49c:	4b04      	ldr	r3, [pc, #16]	; (23ff4b0 <_ZN9USBSerialC1E20HAL_USB_USART_SerialRK20HAL_USB_USART_Config+0x24>)
  _serial = serial;
 23ff49e:	7420      	strb	r0, [r4, #16]
USBSerial::USBSerial(HAL_USB_USART_Serial serial, const HAL_USB_USART_Config& conf)
 23ff4a0:	6023      	str	r3, [r4, #0]
  _blocking = true;
 23ff4a2:	2301      	movs	r3, #1
  HAL_USB_USART_Init(_serial, &conf);
 23ff4a4:	4611      	mov	r1, r2
  _blocking = true;
 23ff4a6:	7463      	strb	r3, [r4, #17]
  HAL_USB_USART_Init(_serial, &conf);
 23ff4a8:	f7ff fb20 	bl	23feaec <HAL_USB_USART_Init>
}
 23ff4ac:	4620      	mov	r0, r4
 23ff4ae:	bd10      	pop	{r4, pc}
 23ff4b0:	023ffe18 	.word	0x023ffe18

023ff4b4 <_ZN9USBSerial5beginEl>:
    HAL_USB_USART_Begin(_serial, speed, NULL);
 23ff4b4:	2200      	movs	r2, #0
 23ff4b6:	7c00      	ldrb	r0, [r0, #16]
 23ff4b8:	f7ff bb26 	b.w	23feb08 <HAL_USB_USART_Begin>

023ff4bc <_ZN9USBSerial11isConnectedEv>:
  return HAL_USB_USART_Is_Connected(_serial);
 23ff4bc:	7c00      	ldrb	r0, [r0, #16]
 23ff4be:	f7ff bb77 	b.w	23febb0 <HAL_USB_USART_Is_Connected>

023ff4c2 <_Z19acquireSerialBufferv>:
{
 23ff4c2:	b510      	push	{r4, lr}
 23ff4c4:	4604      	mov	r4, r0
  HAL_USB_USART_Config conf = {};
 23ff4c6:	2214      	movs	r2, #20
 23ff4c8:	2100      	movs	r1, #0
 23ff4ca:	f000 fb82 	bl	23ffbd2 <memset>
}
 23ff4ce:	4620      	mov	r0, r4
 23ff4d0:	bd10      	pop	{r4, pc}
	...

023ff4d4 <_Z16_fetch_usbserialv>:
{
 23ff4d4:	b510      	push	{r4, lr}
 23ff4d6:	b088      	sub	sp, #32
  HAL_USB_USART_Config conf = acquireSerialBuffer();
 23ff4d8:	a803      	add	r0, sp, #12
 23ff4da:	f7ff fff2 	bl	23ff4c2 <_Z19acquireSerialBufferv>
	static USBSerial _usbserial(HAL_USB_USART_SERIAL, conf);
 23ff4de:	4c0c      	ldr	r4, [pc, #48]	; (23ff510 <_Z16_fetch_usbserialv+0x3c>)
 23ff4e0:	e8d4 1f8f 	ldab	r1, [r4]
 23ff4e4:	f011 0101 	ands.w	r1, r1, #1
 23ff4e8:	d10f      	bne.n	23ff50a <_Z16_fetch_usbserialv+0x36>
 23ff4ea:	4620      	mov	r0, r4
 23ff4ec:	9101      	str	r1, [sp, #4]
 23ff4ee:	f7fe fdf8 	bl	23fe0e2 <__cxa_guard_acquire>
 23ff4f2:	9901      	ldr	r1, [sp, #4]
 23ff4f4:	b148      	cbz	r0, 23ff50a <_Z16_fetch_usbserialv+0x36>
 23ff4f6:	aa03      	add	r2, sp, #12
 23ff4f8:	4806      	ldr	r0, [pc, #24]	; (23ff514 <_Z16_fetch_usbserialv+0x40>)
 23ff4fa:	f7ff ffc7 	bl	23ff48c <_ZN9USBSerialC1E20HAL_USB_USART_SerialRK20HAL_USB_USART_Config>
 23ff4fe:	4620      	mov	r0, r4
 23ff500:	f7fe fdf4 	bl	23fe0ec <__cxa_guard_release>
 23ff504:	4804      	ldr	r0, [pc, #16]	; (23ff518 <_Z16_fetch_usbserialv+0x44>)
 23ff506:	f000 fb51 	bl	23ffbac <atexit>
	return _usbserial;
}
 23ff50a:	4802      	ldr	r0, [pc, #8]	; (23ff514 <_Z16_fetch_usbserialv+0x40>)
 23ff50c:	b008      	add	sp, #32
 23ff50e:	bd10      	pop	{r4, pc}
 23ff510:	1007aebc 	.word	0x1007aebc
 23ff514:	1007aec0 	.word	0x1007aec0
 23ff518:	023ff415 	.word	0x023ff415

023ff51c <_ZN11USARTSerialD1Ev>:
private:
  hal_usart_interface_t _serial;
  bool _blocking;
public:
  USARTSerial(hal_usart_interface_t serial, const hal_usart_buffer_config_t& config);
  virtual ~USARTSerial() {};
 23ff51c:	4770      	bx	lr

023ff51e <_ZN11USARTSerial14blockOnOverrunEb>:
    hal_usart_half_duplex(_serial, Enable);
}

void USARTSerial::blockOnOverrun(bool block)
{
  _blocking = block;
 23ff51e:	7441      	strb	r1, [r0, #17]
}
 23ff520:	4770      	bx	lr

023ff522 <_ZN11USARTSerial17availableForWriteEv>:


int USARTSerial::availableForWrite(void)
{
 23ff522:	b508      	push	{r3, lr}
  return std::max(0, (int)hal_usart_available_data_for_write(_serial));
 23ff524:	7c00      	ldrb	r0, [r0, #16]
 23ff526:	f7ff f9e5 	bl	23fe8f4 <hal_usart_available_data_for_write>
}
 23ff52a:	ea20 70e0 	bic.w	r0, r0, r0, asr #31
 23ff52e:	bd08      	pop	{r3, pc}

023ff530 <_ZN11USARTSerial9availableEv>:

int USARTSerial::available(void)
{
 23ff530:	b508      	push	{r3, lr}
  return std::max(0, (int)hal_usart_available(_serial));
 23ff532:	7c00      	ldrb	r0, [r0, #16]
 23ff534:	f7ff f998 	bl	23fe868 <hal_usart_available>
}
 23ff538:	ea20 70e0 	bic.w	r0, r0, r0, asr #31
 23ff53c:	bd08      	pop	{r3, pc}

023ff53e <_ZN11USARTSerial4peekEv>:

int USARTSerial::peek(void)
{
 23ff53e:	b508      	push	{r3, lr}
  return std::max(-1, (int)hal_usart_peek(_serial));
 23ff540:	7c00      	ldrb	r0, [r0, #16]
 23ff542:	f7ff f9ad 	bl	23fe8a0 <hal_usart_peek>
}
 23ff546:	ea40 70e0 	orr.w	r0, r0, r0, asr #31
 23ff54a:	bd08      	pop	{r3, pc}

023ff54c <_ZN11USARTSerial4readEv>:

int USARTSerial::read(void)
{
 23ff54c:	b508      	push	{r3, lr}
  return std::max(-1, (int)hal_usart_read(_serial));
 23ff54e:	7c00      	ldrb	r0, [r0, #16]
 23ff550:	f7ff f998 	bl	23fe884 <hal_usart_read>
}
 23ff554:	ea40 70e0 	orr.w	r0, r0, r0, asr #31
 23ff558:	bd08      	pop	{r3, pc}

023ff55a <_ZN11USARTSerial5flushEv>:

void USARTSerial::flush()
{
  hal_usart_flush(_serial);
 23ff55a:	7c00      	ldrb	r0, [r0, #16]
 23ff55c:	f7ff b9ae 	b.w	23fe8bc <hal_usart_flush>

023ff560 <_ZN11USARTSerial5writeEh>:
}

size_t USARTSerial::write(uint8_t c)
{
 23ff560:	b537      	push	{r0, r1, r2, r4, r5, lr}
  // attempt a write if blocking, or for non-blocking if there is room.
  if (_blocking || hal_usart_available_data_for_write(_serial) > 0) {
 23ff562:	7c45      	ldrb	r5, [r0, #17]
{
 23ff564:	4604      	mov	r4, r0
  if (_blocking || hal_usart_available_data_for_write(_serial) > 0) {
 23ff566:	b12d      	cbz	r5, 23ff574 <_ZN11USARTSerial5writeEh+0x14>
    // the HAL always blocks.
	  return hal_usart_write(_serial, c);
 23ff568:	7c20      	ldrb	r0, [r4, #16]
  }
  return 0;
}
 23ff56a:	b003      	add	sp, #12
 23ff56c:	e8bd 4030 	ldmia.w	sp!, {r4, r5, lr}
	  return hal_usart_write(_serial, c);
 23ff570:	f7ff b96c 	b.w	23fe84c <hal_usart_write>
  if (_blocking || hal_usart_available_data_for_write(_serial) > 0) {
 23ff574:	7c00      	ldrb	r0, [r0, #16]
 23ff576:	9101      	str	r1, [sp, #4]
 23ff578:	f7ff f9bc 	bl	23fe8f4 <hal_usart_available_data_for_write>
 23ff57c:	2800      	cmp	r0, #0
 23ff57e:	9901      	ldr	r1, [sp, #4]
 23ff580:	dcf2      	bgt.n	23ff568 <_ZN11USARTSerial5writeEh+0x8>
}
 23ff582:	4628      	mov	r0, r5
 23ff584:	b003      	add	sp, #12
 23ff586:	bd30      	pop	{r4, r5, pc}

023ff588 <_ZN11USARTSerialD0Ev>:
 23ff588:	b510      	push	{r4, lr}
 23ff58a:	4604      	mov	r4, r0
 23ff58c:	2114      	movs	r1, #20
 23ff58e:	f7fe fda6 	bl	23fe0de <_ZdlPvj>
 23ff592:	4620      	mov	r0, r4
 23ff594:	bd10      	pop	{r4, pc}
	...

023ff598 <_ZN11USARTSerialC1E21hal_usart_interface_tRK25hal_usart_buffer_config_t>:
USARTSerial::USARTSerial(hal_usart_interface_t serial, const hal_usart_buffer_config_t& config)
 23ff598:	b510      	push	{r4, lr}
 23ff59a:	f44f 737a 	mov.w	r3, #1000	; 0x3e8
 23ff59e:	4604      	mov	r4, r0
 23ff5a0:	4608      	mov	r0, r1
 23ff5a2:	4611      	mov	r1, r2
 23ff5a4:	2200      	movs	r2, #0
 23ff5a6:	e9c4 2301 	strd	r2, r3, [r4, #4]
 23ff5aa:	4b04      	ldr	r3, [pc, #16]	; (23ff5bc <_ZN11USARTSerialC1E21hal_usart_interface_tRK25hal_usart_buffer_config_t+0x24>)
  _serial = serial;
 23ff5ac:	7420      	strb	r0, [r4, #16]
USARTSerial::USARTSerial(hal_usart_interface_t serial, const hal_usart_buffer_config_t& config)
 23ff5ae:	6023      	str	r3, [r4, #0]
  _blocking = true;
 23ff5b0:	2301      	movs	r3, #1
 23ff5b2:	7463      	strb	r3, [r4, #17]
  hal_usart_init_ex(serial, &config, nullptr);
 23ff5b4:	f7ff f9ac 	bl	23fe910 <hal_usart_init_ex>
}
 23ff5b8:	4620      	mov	r0, r4
 23ff5ba:	bd10      	pop	{r4, pc}
 23ff5bc:	023ffe4c 	.word	0x023ffe4c

023ff5c0 <_ZN11USARTSerial9isEnabledEv>:
USARTSerial::operator bool() {
  return true;
}

bool USARTSerial::isEnabled() {
  return hal_usart_is_enabled(_serial);
 23ff5c0:	7c00      	ldrb	r0, [r0, #16]
 23ff5c2:	f7ff b989 	b.w	23fe8d8 <hal_usart_is_enabled>

023ff5c6 <_ZN7TwoWireD1Ev>:
private:
  hal_i2c_interface_t _i2c;

public:
  TwoWire(hal_i2c_interface_t i2c, const hal_i2c_config_t& config);
  virtual ~TwoWire() {};
 23ff5c6:	4770      	bx	lr

023ff5c8 <_ZN7TwoWire5writeEPKhj>:

// must be called in:
// slave tx event callback
// or after beginTransmission(address)
size_t TwoWire::write(const uint8_t *data, size_t quantity)
{
 23ff5c8:	b5f8      	push	{r3, r4, r5, r6, r7, lr}
 23ff5ca:	4606      	mov	r6, r0
 23ff5cc:	4615      	mov	r5, r2
 23ff5ce:	460c      	mov	r4, r1
 23ff5d0:	188f      	adds	r7, r1, r2
  // in master/slave transmitter mode
  for(size_t i = 0; i < quantity; ++i)
 23ff5d2:	42bc      	cmp	r4, r7
 23ff5d4:	d006      	beq.n	23ff5e4 <_ZN7TwoWire5writeEPKhj+0x1c>
  {
    write(data[i]);
 23ff5d6:	6833      	ldr	r3, [r6, #0]
 23ff5d8:	4630      	mov	r0, r6
 23ff5da:	689b      	ldr	r3, [r3, #8]
 23ff5dc:	f814 1b01 	ldrb.w	r1, [r4], #1
 23ff5e0:	4798      	blx	r3
  for(size_t i = 0; i < quantity; ++i)
 23ff5e2:	e7f6      	b.n	23ff5d2 <_ZN7TwoWire5writeEPKhj+0xa>
  }

  return quantity;
}
 23ff5e4:	4628      	mov	r0, r5
 23ff5e6:	bdf8      	pop	{r3, r4, r5, r6, r7, pc}

023ff5e8 <_ZN7TwoWire5writeEh>:
  return hal_i2c_write(_i2c, data, NULL);
 23ff5e8:	2200      	movs	r2, #0
 23ff5ea:	7c00      	ldrb	r0, [r0, #16]
 23ff5ec:	f7ff b99e 	b.w	23fe92c <hal_i2c_write>

023ff5f0 <_ZN7TwoWire9availableEv>:
// must be called in:
// slave rx event callback
// or after requestFrom(address, numBytes)
int TwoWire::available(void)
{
  return hal_i2c_available(_i2c, NULL);
 23ff5f0:	2100      	movs	r1, #0
 23ff5f2:	7c00      	ldrb	r0, [r0, #16]
 23ff5f4:	f7ff b9a8 	b.w	23fe948 <hal_i2c_available>

023ff5f8 <_ZN7TwoWire4readEv>:
// must be called in:
// slave rx event callback
// or after requestFrom(address, numBytes)
int TwoWire::read(void)
{
  return hal_i2c_read(_i2c, NULL);
 23ff5f8:	2100      	movs	r1, #0
 23ff5fa:	7c00      	ldrb	r0, [r0, #16]
 23ff5fc:	f7ff b9b2 	b.w	23fe964 <hal_i2c_read>

023ff600 <_ZN7TwoWire4peekEv>:
// must be called in:
// slave rx event callback
// or after requestFrom(address, numBytes)
int TwoWire::peek(void)
{
  return hal_i2c_peek(_i2c, NULL);
 23ff600:	2100      	movs	r1, #0
 23ff602:	7c00      	ldrb	r0, [r0, #16]
 23ff604:	f7ff b9bc 	b.w	23fe980 <hal_i2c_peek>

023ff608 <_ZN7TwoWire5flushEv>:
}

void TwoWire::flush(void)
{
  hal_i2c_flush(_i2c, NULL);
 23ff608:	2100      	movs	r1, #0
 23ff60a:	7c00      	ldrb	r0, [r0, #16]
 23ff60c:	f7ff b9c6 	b.w	23fe99c <hal_i2c_flush>

023ff610 <_ZN7TwoWireD0Ev>:
 23ff610:	b510      	push	{r4, lr}
 23ff612:	4604      	mov	r4, r0
 23ff614:	2114      	movs	r1, #20
 23ff616:	f7fe fd62 	bl	23fe0de <_ZdlPvj>
 23ff61a:	4620      	mov	r0, r4
 23ff61c:	bd10      	pop	{r4, pc}
	...

023ff620 <_ZN7TwoWireC1E19hal_i2c_interface_tRK16hal_i2c_config_t>:
TwoWire::TwoWire(hal_i2c_interface_t i2c, const hal_i2c_config_t& conf)
 23ff620:	b538      	push	{r3, r4, r5, lr}
 23ff622:	4604      	mov	r4, r0
 23ff624:	4615      	mov	r5, r2
 23ff626:	f44f 737a 	mov.w	r3, #1000	; 0x3e8
 23ff62a:	2200      	movs	r2, #0
 23ff62c:	e9c4 2301 	strd	r2, r3, [r4, #4]
 23ff630:	4b09      	ldr	r3, [pc, #36]	; (23ff658 <_ZN7TwoWireC1E19hal_i2c_interface_tRK16hal_i2c_config_t+0x38>)
 23ff632:	4608      	mov	r0, r1
  _i2c = i2c;
 23ff634:	7421      	strb	r1, [r4, #16]
TwoWire::TwoWire(hal_i2c_interface_t i2c, const hal_i2c_config_t& conf)
 23ff636:	6023      	str	r3, [r4, #0]
  int result = hal_i2c_init(_i2c, &conf);
 23ff638:	4629      	mov	r1, r5
 23ff63a:	f7ff f9cb 	bl	23fe9d4 <hal_i2c_init>
  if (result == SYSTEM_ERROR_NOT_ENOUGH_DATA && 
 23ff63e:	30bf      	adds	r0, #191	; 0xbf
 23ff640:	d108      	bne.n	23ff654 <_ZN7TwoWireC1E19hal_i2c_interface_tRK16hal_i2c_config_t+0x34>
      (conf.flags & HAL_I2C_CONFIG_FLAG_FREEABLE)) {
 23ff642:	696b      	ldr	r3, [r5, #20]
  if (result == SYSTEM_ERROR_NOT_ENOUGH_DATA && 
 23ff644:	07db      	lsls	r3, r3, #31
 23ff646:	d505      	bpl.n	23ff654 <_ZN7TwoWireC1E19hal_i2c_interface_tRK16hal_i2c_config_t+0x34>
    free(conf.rx_buffer);
 23ff648:	6868      	ldr	r0, [r5, #4]
 23ff64a:	f7ff fbf3 	bl	23fee34 <free>
    free(conf.tx_buffer);
 23ff64e:	68e8      	ldr	r0, [r5, #12]
 23ff650:	f7ff fbf0 	bl	23fee34 <free>
}
 23ff654:	4620      	mov	r0, r4
 23ff656:	bd38      	pop	{r3, r4, r5, pc}
 23ff658:	023ffe80 	.word	0x023ffe80

023ff65c <_GLOBAL__sub_I__ZN7TwoWireC2E19hal_i2c_interface_tRK16hal_i2c_config_t>:
        buffer_(nullptr) {
 23ff65c:	21ff      	movs	r1, #255	; 0xff
 23ff65e:	2200      	movs	r2, #0
      : address_{address},
 23ff660:	4b04      	ldr	r3, [pc, #16]	; (23ff674 <_GLOBAL__sub_I__ZN7TwoWireC2E19hal_i2c_interface_tRK16hal_i2c_config_t+0x18>)
        buffer_(nullptr) {
 23ff662:	2001      	movs	r0, #1
 23ff664:	e9c3 1200 	strd	r1, r2, [r3]
 23ff668:	2164      	movs	r1, #100	; 0x64
 23ff66a:	611a      	str	r2, [r3, #16]
 23ff66c:	e9c3 0102 	strd	r0, r1, [r3, #8]

namespace particle {
namespace detail {
const WireTransmission WIRE_INVALID_TRANSMISSION(0xff);
} // detail
} // particle
 23ff670:	4770      	bx	lr
 23ff672:	bf00      	nop
 23ff674:	1007aed4 	.word	0x1007aed4

023ff678 <_ZN5spark9WiFiClass5readyEv>:
    bool connecting(void) {
        return network_connecting(*this, 0, NULL);
    }

    bool ready(void) {
        return network_ready(*this, 0, NULL);
 23ff678:	2200      	movs	r2, #0
 23ff67a:	6840      	ldr	r0, [r0, #4]
 23ff67c:	4611      	mov	r1, r2
 23ff67e:	f7ff bb15 	b.w	23fecac <network_ready>

023ff682 <_ZN5spark9WiFiClass9listeningEv>:
    uint16_t getListenTimeout(void) {
        return network_get_listen_timeout(*this, 0, NULL);
    }

    bool listening(void) {
        return network_listening(*this, 0, NULL);
 23ff682:	2200      	movs	r2, #0
 23ff684:	6840      	ldr	r0, [r0, #4]
 23ff686:	4611      	mov	r1, r2
 23ff688:	f7ff bb48 	b.w	23fed1c <network_listening>

023ff68c <_ZN5spark9WiFiClass16getListenTimeoutEv>:
        return network_get_listen_timeout(*this, 0, NULL);
 23ff68c:	2200      	movs	r2, #0
 23ff68e:	6840      	ldr	r0, [r0, #4]
 23ff690:	4611      	mov	r1, r2
 23ff692:	f7ff bb5f 	b.w	23fed54 <network_get_listen_timeout>

023ff696 <_ZN5spark9WiFiClass16setListenTimeoutEt>:
        network_set_listen_timeout(*this, timeout, NULL);
 23ff696:	2200      	movs	r2, #0
 23ff698:	6840      	ldr	r0, [r0, #4]
 23ff69a:	f7ff bb4d 	b.w	23fed38 <network_set_listen_timeout>

023ff69e <_ZN5spark9WiFiClass6listenEb>:
        network_listen(*this, begin ? 0 : 1, NULL);
 23ff69e:	2200      	movs	r2, #0
 23ff6a0:	6840      	ldr	r0, [r0, #4]
 23ff6a2:	f081 0101 	eor.w	r1, r1, #1
 23ff6a6:	f7ff bb2b 	b.w	23fed00 <network_listen>

023ff6aa <_ZN5spark9WiFiClass3offEv>:
        network_off(*this, 0, 0, NULL);
 23ff6aa:	2300      	movs	r3, #0
 23ff6ac:	6840      	ldr	r0, [r0, #4]
 23ff6ae:	461a      	mov	r2, r3
 23ff6b0:	4619      	mov	r1, r3
 23ff6b2:	f7ff bb17 	b.w	23fece4 <network_off>

023ff6b6 <_ZN5spark9WiFiClass2onEv>:
        network_on(*this, 0, 0, NULL);
 23ff6b6:	2300      	movs	r3, #0
 23ff6b8:	6840      	ldr	r0, [r0, #4]
 23ff6ba:	461a      	mov	r2, r3
 23ff6bc:	4619      	mov	r1, r3
 23ff6be:	f7ff bb03 	b.w	23fecc8 <network_on>

023ff6c2 <_ZN5spark9WiFiClass10connectingEv>:
        return network_connecting(*this, 0, NULL);
 23ff6c2:	2200      	movs	r2, #0
 23ff6c4:	6840      	ldr	r0, [r0, #4]
 23ff6c6:	4611      	mov	r1, r2
 23ff6c8:	f7ff bad4 	b.w	23fec74 <network_connecting>

023ff6cc <_ZN5spark9WiFiClass10disconnectEv>:
        network_disconnect(*this, NETWORK_DISCONNECT_REASON_USER, NULL);
 23ff6cc:	2200      	movs	r2, #0
 23ff6ce:	2102      	movs	r1, #2
 23ff6d0:	6840      	ldr	r0, [r0, #4]
 23ff6d2:	f7ff badd 	b.w	23fec90 <network_disconnect>

023ff6d6 <_ZN5spark9WiFiClass7connectEj>:
        network_connect(*this, flags, 0, NULL);
 23ff6d6:	2300      	movs	r3, #0
 23ff6d8:	6840      	ldr	r0, [r0, #4]
 23ff6da:	461a      	mov	r2, r3
 23ff6dc:	f7ff babc 	b.w	23fec58 <network_connect>

023ff6e0 <_GLOBAL__sub_I__ZN10WiFiSignalC2ERK21wlan_connected_info_t>:
 23ff6e0:	2204      	movs	r2, #4
 23ff6e2:	4b02      	ldr	r3, [pc, #8]	; (23ff6ec <_GLOBAL__sub_I__ZN10WiFiSignalC2ERK21wlan_connected_info_t+0xc>)
 23ff6e4:	605a      	str	r2, [r3, #4]
            NetworkClass(NETWORK_INTERFACE_WIFI_STA) {
 23ff6e6:	4a02      	ldr	r2, [pc, #8]	; (23ff6f0 <_GLOBAL__sub_I__ZN10WiFiSignalC2ERK21wlan_connected_info_t+0x10>)
 23ff6e8:	601a      	str	r2, [r3, #0]
the same way.
*****************************************************************************/

    WiFiClass WiFi;
    // NetworkClass& Network = WiFi;
}
 23ff6ea:	4770      	bx	lr
 23ff6ec:	1007aee8 	.word	0x1007aee8
 23ff6f0:	023ffeac 	.word	0x023ffeac

023ff6f4 <_ZN5spark12NetworkClass7connectEj>:
        return Network;
    }
}

void NetworkClass::connect(unsigned flags) {
    network_connect(*this, flags, 0, nullptr);
 23ff6f4:	2300      	movs	r3, #0
 23ff6f6:	6840      	ldr	r0, [r0, #4]
 23ff6f8:	461a      	mov	r2, r3
 23ff6fa:	f7ff baad 	b.w	23fec58 <network_connect>

023ff6fe <_ZN5spark12NetworkClass10disconnectEv>:
}

void NetworkClass::disconnect() {
    network_disconnect(*this, NETWORK_DISCONNECT_REASON_USER, nullptr);
 23ff6fe:	2200      	movs	r2, #0
 23ff700:	2102      	movs	r1, #2
 23ff702:	6840      	ldr	r0, [r0, #4]
 23ff704:	f7ff bac4 	b.w	23fec90 <network_disconnect>

023ff708 <_ZN5spark12NetworkClass10connectingEv>:
}

bool NetworkClass::connecting() {
    return network_connecting(*this, 0, nullptr);
 23ff708:	2200      	movs	r2, #0
 23ff70a:	6840      	ldr	r0, [r0, #4]
 23ff70c:	4611      	mov	r1, r2
 23ff70e:	f7ff bab1 	b.w	23fec74 <network_connecting>

023ff712 <_ZN5spark12NetworkClass5readyEv>:
}

bool NetworkClass::ready() {
    return network_ready(*this, 0, nullptr);
 23ff712:	2200      	movs	r2, #0
 23ff714:	6840      	ldr	r0, [r0, #4]
 23ff716:	4611      	mov	r1, r2
 23ff718:	f7ff bac8 	b.w	23fecac <network_ready>

023ff71c <_ZN5spark12NetworkClass2onEv>:
}

void NetworkClass::on() {
    network_on(*this, 0, 0, nullptr);
 23ff71c:	2300      	movs	r3, #0
 23ff71e:	6840      	ldr	r0, [r0, #4]
 23ff720:	461a      	mov	r2, r3
 23ff722:	4619      	mov	r1, r3
 23ff724:	f7ff bad0 	b.w	23fecc8 <network_on>

023ff728 <_ZN5spark12NetworkClass3offEv>:
}

void NetworkClass::off() {
    network_off(*this, 0, 0, nullptr);
 23ff728:	2300      	movs	r3, #0
 23ff72a:	6840      	ldr	r0, [r0, #4]
 23ff72c:	461a      	mov	r2, r3
 23ff72e:	4619      	mov	r1, r3
 23ff730:	f7ff bad8 	b.w	23fece4 <network_off>

023ff734 <_ZN5spark12NetworkClass4isOnEv>:
}

bool NetworkClass::isOn() {
    return network_is_on(*this, nullptr);
 23ff734:	2100      	movs	r1, #0
 23ff736:	6840      	ldr	r0, [r0, #4]
 23ff738:	f7ff bb1a 	b.w	23fed70 <network_is_on>

023ff73c <_ZN5spark12NetworkClass5isOffEv>:
}

bool NetworkClass::isOff() {
    return network_is_off(*this, nullptr);
 23ff73c:	2100      	movs	r1, #0
 23ff73e:	6840      	ldr	r0, [r0, #4]
 23ff740:	f7ff bb24 	b.w	23fed8c <network_is_off>

023ff744 <_ZN5spark12NetworkClass6listenEb>:
}

void NetworkClass::listen(bool begin) {
    network_listen(*this, begin ? 0 : 1, nullptr);
 23ff744:	2200      	movs	r2, #0
 23ff746:	6840      	ldr	r0, [r0, #4]
 23ff748:	f081 0101 	eor.w	r1, r1, #1
 23ff74c:	f7ff bad8 	b.w	23fed00 <network_listen>

023ff750 <_ZN5spark12NetworkClass16setListenTimeoutEt>:
}

void NetworkClass::setListenTimeout(uint16_t timeout) {
    network_set_listen_timeout(*this, timeout, nullptr);
 23ff750:	2200      	movs	r2, #0
 23ff752:	6840      	ldr	r0, [r0, #4]
 23ff754:	f7ff baf0 	b.w	23fed38 <network_set_listen_timeout>

023ff758 <_ZN5spark12NetworkClass16getListenTimeoutEv>:
}

uint16_t NetworkClass::getListenTimeout() {
    return network_get_listen_timeout(*this, 0, nullptr);
 23ff758:	2200      	movs	r2, #0
 23ff75a:	6840      	ldr	r0, [r0, #4]
 23ff75c:	4611      	mov	r1, r2
 23ff75e:	f7ff baf9 	b.w	23fed54 <network_get_listen_timeout>

023ff762 <_ZN5spark12NetworkClass9listeningEv>:
}

bool NetworkClass::listening() {
    return network_listening(*this, 0, nullptr);
 23ff762:	2200      	movs	r2, #0
 23ff764:	6840      	ldr	r0, [r0, #4]
 23ff766:	4611      	mov	r1, r2
 23ff768:	f7ff bad8 	b.w	23fed1c <network_listening>

023ff76c <_ZN5spark12NetworkClass11isPreferredEv>:
    network_handle_t network = network_prefer(*this, prefer, nullptr);
    return Network.from(network);
}

bool NetworkClass::isPreferred() {
    return network_is_preferred(*this, nullptr);
 23ff76c:	2100      	movs	r1, #0
 23ff76e:	6840      	ldr	r0, [r0, #4]
 23ff770:	f7ff bb28 	b.w	23fedc4 <network_is_preferred>

023ff774 <_ZN5spark12NetworkClass7resolveEPKc>:
}

IPAddress NetworkClass::resolve(const char* name) {
 23ff774:	e92d 43f0 	stmdb	sp!, {r4, r5, r6, r7, r8, r9, lr}
 23ff778:	b095      	sub	sp, #84	; 0x54
 23ff77a:	4614      	mov	r4, r2
 23ff77c:	460d      	mov	r5, r1
 23ff77e:	4607      	mov	r7, r0
    IPAddress addr;
 23ff780:	f7ff fe08 	bl	23ff394 <_ZN9IPAddressC1Ev>
#if HAL_USE_INET_HAL_POSIX
    struct addrinfo *ai = nullptr;
 23ff784:	2100      	movs	r1, #0
    struct addrinfo hints = {};
 23ff786:	221c      	movs	r2, #28
 23ff788:	a80d      	add	r0, sp, #52	; 0x34
    struct addrinfo *ai = nullptr;
 23ff78a:	9100      	str	r1, [sp, #0]
    struct addrinfo hints = {};
 23ff78c:	f000 fa21 	bl	23ffbd2 <memset>
    hints.ai_flags = AI_ADDRCONFIG;
 23ff790:	2340      	movs	r3, #64	; 0x40
    hints.ai_family = AF_UNSPEC;
    const int r = getaddrinfo(name, nullptr, &hints, &ai);
 23ff792:	4620      	mov	r0, r4
    hints.ai_flags = AI_ADDRCONFIG;
 23ff794:	930c      	str	r3, [sp, #48]	; 0x30
    const int r = getaddrinfo(name, nullptr, &hints, &ai);
 23ff796:	2100      	movs	r1, #0
 23ff798:	466b      	mov	r3, sp
 23ff79a:	aa0c      	add	r2, sp, #48	; 0x30
 23ff79c:	f7fe ffa0 	bl	23fe6e0 <netdb_getaddrinfo>
    if (!r) {
 23ff7a0:	4604      	mov	r4, r0
 23ff7a2:	2800      	cmp	r0, #0
 23ff7a4:	d14b      	bne.n	23ff83e <_ZN5spark12NetworkClass7resolveEPKc+0xca>
        bool ok = false;
        // This is not really needed if AI_ADDRCONFIG is properly supported
        bool ipv4 = network_ready(*this, NETWORK_READY_TYPE_IPV4, nullptr);
 23ff7a6:	4602      	mov	r2, r0
 23ff7a8:	2101      	movs	r1, #1
 23ff7aa:	6868      	ldr	r0, [r5, #4]
 23ff7ac:	f7ff fa7e 	bl	23fecac <network_ready>
        bool ipv6 = network_ready(*this, NETWORK_READY_TYPE_IPV6, nullptr);
 23ff7b0:	2102      	movs	r1, #2
        bool ipv4 = network_ready(*this, NETWORK_READY_TYPE_IPV4, nullptr);
 23ff7b2:	4680      	mov	r8, r0
        bool ipv6 = network_ready(*this, NETWORK_READY_TYPE_IPV6, nullptr);
 23ff7b4:	4622      	mov	r2, r4
 23ff7b6:	6868      	ldr	r0, [r5, #4]
 23ff7b8:	f7ff fa78 	bl	23fecac <network_ready>
        bool ok = false;
 23ff7bc:	4621      	mov	r1, r4
        bool ipv6 = network_ready(*this, NETWORK_READY_TYPE_IPV6, nullptr);
 23ff7be:	4681      	mov	r9, r0
        for (auto cur = ai; cur != nullptr && !ok; cur = cur->ai_next) {
 23ff7c0:	9e00      	ldr	r6, [sp, #0]
 23ff7c2:	2e00      	cmp	r6, #0
 23ff7c4:	d03b      	beq.n	23ff83e <_ZN5spark12NetworkClass7resolveEPKc+0xca>
 23ff7c6:	2900      	cmp	r1, #0
 23ff7c8:	d139      	bne.n	23ff83e <_ZN5spark12NetworkClass7resolveEPKc+0xca>
            // NOTE: using only the first entry that matches the current state of IPv4/IPv6 connectivity
            switch (cur->ai_family) {
 23ff7ca:	6873      	ldr	r3, [r6, #4]
 23ff7cc:	2b02      	cmp	r3, #2
 23ff7ce:	d003      	beq.n	23ff7d8 <_ZN5spark12NetworkClass7resolveEPKc+0x64>
 23ff7d0:	2b0a      	cmp	r3, #10
 23ff7d2:	d011      	beq.n	23ff7f8 <_ZN5spark12NetworkClass7resolveEPKc+0x84>
        for (auto cur = ai; cur != nullptr && !ok; cur = cur->ai_next) {
 23ff7d4:	69f6      	ldr	r6, [r6, #28]
 23ff7d6:	e7f4      	b.n	23ff7c2 <_ZN5spark12NetworkClass7resolveEPKc+0x4e>
                case AF_INET: {
                    if (!ipv4) {
 23ff7d8:	f1b8 0f00 	cmp.w	r8, #0
 23ff7dc:	d0fa      	beq.n	23ff7d4 <_ZN5spark12NetworkClass7resolveEPKc+0x60>
                        continue;
                    }
                    // NOTE: HAL_IPAddress is little-endian
                    auto in = (struct sockaddr_in*)cur->ai_addr;
                    addr = (const uint8_t*)(&in->sin_addr.s_addr);
 23ff7de:	6971      	ldr	r1, [r6, #20]
        return *this = IPAddress(address);
 23ff7e0:	a806      	add	r0, sp, #24
 23ff7e2:	3104      	adds	r1, #4
class IPAddress : public Printable {
 23ff7e4:	1d3c      	adds	r4, r7, #4
 23ff7e6:	ad07      	add	r5, sp, #28
        return *this = IPAddress(address);
 23ff7e8:	f7ff fe02 	bl	23ff3f0 <_ZN9IPAddressC1EPKh>
class IPAddress : public Printable {
 23ff7ec:	cd0f      	ldmia	r5!, {r0, r1, r2, r3}
 23ff7ee:	c40f      	stmia	r4!, {r0, r1, r2, r3}
 23ff7f0:	682b      	ldr	r3, [r5, #0]
                    ok = true;
 23ff7f2:	4641      	mov	r1, r8
 23ff7f4:	7023      	strb	r3, [r4, #0]
        return *this = IPAddress(address);
 23ff7f6:	e7ed      	b.n	23ff7d4 <_ZN5spark12NetworkClass7resolveEPKc+0x60>
                    break;
                }
                case AF_INET6: {
                    if (!ipv6) {
 23ff7f8:	f1b9 0f00 	cmp.w	r9, #0
 23ff7fc:	d0ea      	beq.n	23ff7d4 <_ZN5spark12NetworkClass7resolveEPKc+0x60>
                        continue;
                    }
                    auto in6 = (struct sockaddr_in6*)cur->ai_addr;
                    HAL_IPAddress a = {};
 23ff7fe:	2210      	movs	r2, #16
 23ff800:	a801      	add	r0, sp, #4
                    auto in6 = (struct sockaddr_in6*)cur->ai_addr;
 23ff802:	6974      	ldr	r4, [r6, #20]
                    HAL_IPAddress a = {};
 23ff804:	f000 f9e5 	bl	23ffbd2 <memset>
                    a.v = 6;
 23ff808:	2306      	movs	r3, #6
                    memcpy(a.ipv6, in6->sin6_addr.s6_addr, sizeof(a.ipv6));
 23ff80a:	ad01      	add	r5, sp, #4
                    a.v = 6;
 23ff80c:	f88d 3014 	strb.w	r3, [sp, #20]
                    memcpy(a.ipv6, in6->sin6_addr.s6_addr, sizeof(a.ipv6));
 23ff810:	f104 0308 	add.w	r3, r4, #8
 23ff814:	3418      	adds	r4, #24
 23ff816:	462a      	mov	r2, r5
 23ff818:	6818      	ldr	r0, [r3, #0]
 23ff81a:	6859      	ldr	r1, [r3, #4]
 23ff81c:	3308      	adds	r3, #8
 23ff81e:	c203      	stmia	r2!, {r0, r1}
 23ff820:	42a3      	cmp	r3, r4
 23ff822:	4615      	mov	r5, r2
 23ff824:	d1f7      	bne.n	23ff816 <_ZN5spark12NetworkClass7resolveEPKc+0xa2>
                    addr = IPAddress(a);
 23ff826:	a901      	add	r1, sp, #4
 23ff828:	a806      	add	r0, sp, #24
class IPAddress : public Printable {
 23ff82a:	1d3c      	adds	r4, r7, #4
 23ff82c:	ad07      	add	r5, sp, #28
 23ff82e:	f7ff fdbf 	bl	23ff3b0 <_ZN9IPAddressC1ERK16_HAL_IPAddress_t>
 23ff832:	cd0f      	ldmia	r5!, {r0, r1, r2, r3}
 23ff834:	c40f      	stmia	r4!, {r0, r1, r2, r3}
 23ff836:	682b      	ldr	r3, [r5, #0]
                    ok = true;
 23ff838:	4649      	mov	r1, r9
 23ff83a:	7023      	strb	r3, [r4, #0]
                    break;
 23ff83c:	e7ca      	b.n	23ff7d4 <_ZN5spark12NetworkClass7resolveEPKc+0x60>
                }
            }
        }
    }
    freeaddrinfo(ai);
 23ff83e:	9800      	ldr	r0, [sp, #0]
 23ff840:	f7fe ff40 	bl	23fe6c4 <netdb_freeaddrinfo>
    return Cellular.resolve(name);
#endif // Wiring_Cellular

#endif // HAL_USE_INET_HAL_POSIX
    return addr;
}
 23ff844:	4638      	mov	r0, r7
 23ff846:	b015      	add	sp, #84	; 0x54
 23ff848:	e8bd 83f0 	ldmia.w	sp!, {r4, r5, r6, r7, r8, r9, pc}

023ff84c <_ZN5spark12NetworkClass4fromEm>:
    switch (nif) {
 23ff84c:	3803      	subs	r0, #3
 23ff84e:	2802      	cmp	r0, #2
 23ff850:	bf9a      	itte	ls
 23ff852:	4b02      	ldrls	r3, [pc, #8]	; (23ff85c <_ZN5spark12NetworkClass4fromEm+0x10>)
 23ff854:	f853 0020 	ldrls.w	r0, [r3, r0, lsl #2]
NetworkClass& NetworkClass::from(network_interface_t nif) {
 23ff858:	4801      	ldrhi	r0, [pc, #4]	; (23ff860 <_ZN5spark12NetworkClass4fromEm+0x14>)
}
 23ff85a:	4770      	bx	lr
 23ff85c:	023ffee8 	.word	0x023ffee8
 23ff860:	1007aef0 	.word	0x1007aef0

023ff864 <_ZN5spark12NetworkClass6preferEb>:
NetworkClass& NetworkClass::prefer(bool prefer) {
 23ff864:	b508      	push	{r3, lr}
    network_handle_t network = network_prefer(*this, prefer, nullptr);
 23ff866:	2200      	movs	r2, #0
 23ff868:	6840      	ldr	r0, [r0, #4]
 23ff86a:	f7ff fa9d 	bl	23feda8 <network_prefer>
}
 23ff86e:	e8bd 4008 	ldmia.w	sp!, {r3, lr}
    return Network.from(network);
 23ff872:	f7ff bfeb 	b.w	23ff84c <_ZN5spark12NetworkClass4fromEm>
	...

023ff878 <_GLOBAL__sub_I__ZN5spark7NetworkE>:
 23ff878:	4b02      	ldr	r3, [pc, #8]	; (23ff884 <_GLOBAL__sub_I__ZN5spark7NetworkE+0xc>)
 23ff87a:	4a03      	ldr	r2, [pc, #12]	; (23ff888 <_GLOBAL__sub_I__ZN5spark7NetworkE+0x10>)
 23ff87c:	601a      	str	r2, [r3, #0]
 23ff87e:	2200      	movs	r2, #0
 23ff880:	605a      	str	r2, [r3, #4]
    network_free_configuration(c, count, nullptr);
    return res;
}
#endif // HAL_USE_SOCKET_HAL_POSIX

} // spark
 23ff882:	4770      	bx	lr
 23ff884:	1007aef0 	.word	0x1007aef0
 23ff888:	023ffefc 	.word	0x023ffefc

023ff88c <getPinMode>:
 * AN_OUTPUT = 7
 * PIN_MODE_NONE = 255
 */
PinMode getPinMode(uint16_t pin)
{
  return hal_gpio_get_mode(pin);
 23ff88c:	f7fe bf52 	b.w	23fe734 <hal_gpio_get_mode>

023ff890 <pinAvailable>:
/*
 * @brief Perform safety check on desired pin to see if it's already
 * being used.  Return 0 if used, otherwise return 1 if available.
 */
bool pinAvailable(uint16_t pin) {
  if (pin >= TOTAL_PINS) {
 23ff890:	281b      	cmp	r0, #27
bool pinAvailable(uint16_t pin) {
 23ff892:	b537      	push	{r0, r1, r2, r4, r5, lr}
 23ff894:	4604      	mov	r4, r0
  if (pin >= TOTAL_PINS) {
 23ff896:	d902      	bls.n	23ff89e <pinAvailable+0xe>
    return false;
 23ff898:	2000      	movs	r0, #0
    return false; // 'pin' is used
  }
#endif

  return true; // 'pin' is available
}
 23ff89a:	b003      	add	sp, #12
 23ff89c:	bd30      	pop	{r4, r5, pc}
  if((pin == SCK || pin == MOSI || pin == MISO) && hal_spi_is_enabled(SPI.interface()) == true)
 23ff89e:	f1a0 030f 	sub.w	r3, r0, #15
 23ff8a2:	2b02      	cmp	r3, #2
 23ff8a4:	d90b      	bls.n	23ff8be <pinAvailable+0x2e>
  if((pin == SCL || pin == SDA) && hal_i2c_is_enabled(Wire.interface(), nullptr) == true)
 23ff8a6:	2801      	cmp	r0, #1
 23ff8a8:	d821      	bhi.n	23ff8ee <pinAvailable+0x5e>
 23ff8aa:	f000 f959 	bl	23ffb60 <_Z19__fetch_global_Wirev>
 23ff8ae:	2100      	movs	r1, #0
 23ff8b0:	7c00      	ldrb	r0, [r0, #16]
 23ff8b2:	f7ff f881 	bl	23fe9b8 <hal_i2c_is_enabled>
  if((pin == RX || pin == TX) && hal_usart_is_enabled(Serial1.interface()) == true)
 23ff8b6:	f080 0001 	eor.w	r0, r0, #1
 23ff8ba:	b2c0      	uxtb	r0, r0
 23ff8bc:	e7ed      	b.n	23ff89a <pinAvailable+0xa>

template <hal_spi_interface_t Interface>
class SpiProxy {
public:
    static SPIClass& instance() {
        static SPIClass instance(Interface);
 23ff8be:	4d11      	ldr	r5, [pc, #68]	; (23ff904 <pinAvailable+0x74>)
 23ff8c0:	e8d5 1f8f 	ldab	r1, [r5]
 23ff8c4:	f011 0101 	ands.w	r1, r1, #1
 23ff8c8:	d10b      	bne.n	23ff8e2 <pinAvailable+0x52>
 23ff8ca:	4628      	mov	r0, r5
 23ff8cc:	9101      	str	r1, [sp, #4]
 23ff8ce:	f7fe fc08 	bl	23fe0e2 <__cxa_guard_acquire>
 23ff8d2:	9901      	ldr	r1, [sp, #4]
 23ff8d4:	b128      	cbz	r0, 23ff8e2 <pinAvailable+0x52>
 23ff8d6:	480c      	ldr	r0, [pc, #48]	; (23ff908 <pinAvailable+0x78>)
 23ff8d8:	f7ff fb28 	bl	23fef2c <_ZN8SPIClassC1E19hal_spi_interface_t>
 23ff8dc:	4628      	mov	r0, r5
 23ff8de:	f7fe fc05 	bl	23fe0ec <__cxa_guard_release>
  if((pin == SCK || pin == MOSI || pin == MISO) && hal_spi_is_enabled(SPI.interface()) == true)
 23ff8e2:	4b09      	ldr	r3, [pc, #36]	; (23ff908 <pinAvailable+0x78>)
 23ff8e4:	7818      	ldrb	r0, [r3, #0]
 23ff8e6:	f7ff f89f 	bl	23fea28 <hal_spi_is_enabled>
 23ff8ea:	2800      	cmp	r0, #0
 23ff8ec:	d1d4      	bne.n	23ff898 <pinAvailable+0x8>
  if((pin == RX || pin == TX) && hal_usart_is_enabled(Serial1.interface()) == true)
 23ff8ee:	3c08      	subs	r4, #8
 23ff8f0:	2c01      	cmp	r4, #1
 23ff8f2:	d805      	bhi.n	23ff900 <pinAvailable+0x70>
 23ff8f4:	f000 f888 	bl	23ffa08 <_Z22__fetch_global_Serial1v>
 23ff8f8:	7c00      	ldrb	r0, [r0, #16]
 23ff8fa:	f7fe ffed 	bl	23fe8d8 <hal_usart_is_enabled>
 23ff8fe:	e7da      	b.n	23ff8b6 <pinAvailable+0x26>
  return true; // 'pin' is available
 23ff900:	2001      	movs	r0, #1
 23ff902:	e7ca      	b.n	23ff89a <pinAvailable+0xa>
 23ff904:	1007aef8 	.word	0x1007aef8
 23ff908:	1007aefc 	.word	0x1007aefc

023ff90c <pinMode>:
  if(pin >= TOTAL_PINS || setMode == PIN_MODE_NONE )
 23ff90c:	281b      	cmp	r0, #27
{
 23ff90e:	b538      	push	{r3, r4, r5, lr}
 23ff910:	4604      	mov	r4, r0
 23ff912:	460d      	mov	r5, r1
  if(pin >= TOTAL_PINS || setMode == PIN_MODE_NONE )
 23ff914:	d80a      	bhi.n	23ff92c <pinMode+0x20>
 23ff916:	29ff      	cmp	r1, #255	; 0xff
 23ff918:	d008      	beq.n	23ff92c <pinMode+0x20>
  if( !pinAvailable(pin) ) {
 23ff91a:	f7ff ffb9 	bl	23ff890 <pinAvailable>
 23ff91e:	b128      	cbz	r0, 23ff92c <pinMode+0x20>
  hal_gpio_mode(pin, setMode);
 23ff920:	4629      	mov	r1, r5
 23ff922:	4620      	mov	r0, r4
}
 23ff924:	e8bd 4038 	ldmia.w	sp!, {r3, r4, r5, lr}
  hal_gpio_mode(pin, setMode);
 23ff928:	f7fe bef6 	b.w	23fe718 <hal_gpio_mode>
}
 23ff92c:	bd38      	pop	{r3, r4, r5, pc}

023ff92e <digitalWrite>:

/*
 * @brief Sets a GPIO pin to HIGH or LOW.
 */
void digitalWrite(hal_pin_t pin, uint8_t value)
{
 23ff92e:	b538      	push	{r3, r4, r5, lr}
 23ff930:	4604      	mov	r4, r0
 23ff932:	460d      	mov	r5, r1
    PinMode mode = hal_gpio_get_mode(pin);
 23ff934:	f7fe fefe 	bl	23fe734 <hal_gpio_get_mode>
    if (mode==PIN_MODE_NONE || is_input_mode(mode))
 23ff938:	28ff      	cmp	r0, #255	; 0xff
 23ff93a:	d010      	beq.n	23ff95e <digitalWrite+0x30>
            mode == INPUT_PULLDOWN ||
 23ff93c:	2806      	cmp	r0, #6
 23ff93e:	d804      	bhi.n	23ff94a <digitalWrite+0x1c>
 23ff940:	234d      	movs	r3, #77	; 0x4d
 23ff942:	fa23 f000 	lsr.w	r0, r3, r0
 23ff946:	07c3      	lsls	r3, r0, #31
 23ff948:	d409      	bmi.n	23ff95e <digitalWrite+0x30>
        return;
  // Safety check
  if( !pinAvailable(pin) ) {
 23ff94a:	4620      	mov	r0, r4
 23ff94c:	f7ff ffa0 	bl	23ff890 <pinAvailable>
 23ff950:	b128      	cbz	r0, 23ff95e <digitalWrite+0x30>
    return;
  }

  hal_gpio_write(pin, value);
 23ff952:	4629      	mov	r1, r5
 23ff954:	4620      	mov	r0, r4
}
 23ff956:	e8bd 4038 	ldmia.w	sp!, {r3, r4, r5, lr}
  hal_gpio_write(pin, value);
 23ff95a:	f7fe bef9 	b.w	23fe750 <hal_gpio_write>
}
 23ff95e:	bd38      	pop	{r3, r4, r5, pc}

023ff960 <digitalRead>:

/*
 * @brief Reads the value of a GPIO pin. Should return either 1 (HIGH) or 0 (LOW).
 */
int32_t digitalRead(hal_pin_t pin)
{
 23ff960:	b510      	push	{r4, lr}
 23ff962:	4604      	mov	r4, r0
    PinMode mode = hal_gpio_get_mode(pin);
 23ff964:	f7fe fee6 	bl	23fe734 <hal_gpio_get_mode>
    return mode == AF_OUTPUT_PUSHPULL ||
 23ff968:	1f03      	subs	r3, r0, #4
    if (is_af_output_mode(mode))
 23ff96a:	b2db      	uxtb	r3, r3
 23ff96c:	2b01      	cmp	r3, #1
 23ff96e:	d908      	bls.n	23ff982 <digitalRead+0x22>
        return LOW;

    // Safety check
    if( !pinAvailable(pin) ) {
 23ff970:	4620      	mov	r0, r4
 23ff972:	f7ff ff8d 	bl	23ff890 <pinAvailable>
 23ff976:	b120      	cbz	r0, 23ff982 <digitalRead+0x22>
      return LOW;
    }

    return hal_gpio_read(pin);
 23ff978:	4620      	mov	r0, r4
}
 23ff97a:	e8bd 4010 	ldmia.w	sp!, {r4, lr}
    return hal_gpio_read(pin);
 23ff97e:	f7fe bef5 	b.w	23fe76c <hal_gpio_read>
}
 23ff982:	2000      	movs	r0, #0
 23ff984:	bd10      	pop	{r4, pc}

023ff986 <analogRead>:
 * @brief Read the analog value of a pin.
 * Should return a 16-bit value, 0-65536 (0 = LOW, 65536 = HIGH)
 * Note: ADC is 12-bit. Currently it returns 0-4095
 */
int32_t analogRead(hal_pin_t pin)
{
 23ff986:	b510      	push	{r4, lr}
 23ff988:	4604      	mov	r4, r0
  }
#endif // defined(FIRST_ANALOG_PIN) && FIRST_ANALOG_PIN > 0
#endif

  // Safety check
  if( !pinAvailable(pin) ) {
 23ff98a:	f7ff ff81 	bl	23ff890 <pinAvailable>
 23ff98e:	b150      	cbz	r0, 23ff9a6 <analogRead+0x20>
    return LOW;
  }

  if(hal_pin_validate_function(pin, PF_ADC)!=PF_ADC)
 23ff990:	2103      	movs	r1, #3
 23ff992:	4620      	mov	r0, r4
 23ff994:	f7fe feb2 	bl	23fe6fc <hal_pin_validate_function>
 23ff998:	2803      	cmp	r0, #3
 23ff99a:	d104      	bne.n	23ff9a6 <analogRead+0x20>
  {
    return LOW;
  }

  return hal_adc_read(pin);
 23ff99c:	4620      	mov	r0, r4
}
 23ff99e:	e8bd 4010 	ldmia.w	sp!, {r4, lr}
  return hal_adc_read(pin);
 23ff9a2:	f7fe bef1 	b.w	23fe788 <hal_adc_read>
}
 23ff9a6:	2000      	movs	r0, #0
 23ff9a8:	bd10      	pop	{r4, pc}

023ff9aa <__tcf_0>:
}
#endif

USARTSerial& __fetch_global_Serial1()
{
    static USARTSerial serial1(HAL_USART_SERIAL1, acquireSerial1Buffer());
 23ff9aa:	4770      	bx	lr

023ff9ac <_ZN12_GLOBAL__N_118defaultUsartConfigEv>:
hal_usart_buffer_config_t defaultUsartConfig() {
 23ff9ac:	b538      	push	{r3, r4, r5, lr}
    hal_usart_buffer_config_t config = {
 23ff9ae:	2514      	movs	r5, #20
hal_usart_buffer_config_t defaultUsartConfig() {
 23ff9b0:	4604      	mov	r4, r0
    hal_usart_buffer_config_t config = {
 23ff9b2:	462a      	mov	r2, r5
 23ff9b4:	2100      	movs	r1, #0
 23ff9b6:	f000 f90c 	bl	23ffbd2 <memset>
 23ff9ba:	8025      	strh	r5, [r4, #0]
 23ff9bc:	2540      	movs	r5, #64	; 0x40
        .rx_buffer = new (std::nothrow) uint8_t[bufferSize],
 23ff9be:	4907      	ldr	r1, [pc, #28]	; (23ff9dc <_ZN12_GLOBAL__N_118defaultUsartConfigEv+0x30>)
 23ff9c0:	4628      	mov	r0, r5
    hal_usart_buffer_config_t config = {
 23ff9c2:	8125      	strh	r5, [r4, #8]
 23ff9c4:	8225      	strh	r5, [r4, #16]
        .rx_buffer = new (std::nothrow) uint8_t[bufferSize],
 23ff9c6:	f000 f8ef 	bl	23ffba8 <_ZnajRKSt9nothrow_t>
        .tx_buffer = new (std::nothrow) uint8_t[bufferSize],
 23ff9ca:	4904      	ldr	r1, [pc, #16]	; (23ff9dc <_ZN12_GLOBAL__N_118defaultUsartConfigEv+0x30>)
    };
 23ff9cc:	6060      	str	r0, [r4, #4]
        .tx_buffer = new (std::nothrow) uint8_t[bufferSize],
 23ff9ce:	4628      	mov	r0, r5
 23ff9d0:	f000 f8ea 	bl	23ffba8 <_ZnajRKSt9nothrow_t>
    };
 23ff9d4:	60e0      	str	r0, [r4, #12]
}
 23ff9d6:	4620      	mov	r0, r4
 23ff9d8:	bd38      	pop	{r3, r4, r5, pc}
 23ff9da:	bf00      	nop
 23ff9dc:	023fff38 	.word	0x023fff38

023ff9e0 <__tcf_2>:
 23ff9e0:	4770      	bx	lr

023ff9e2 <__tcf_1>:
 23ff9e2:	4770      	bx	lr

023ff9e4 <_Z20acquireSerial1Bufferv>:
{
 23ff9e4:	b510      	push	{r4, lr}
 23ff9e6:	4604      	mov	r4, r0
    return defaultUsartConfig();
 23ff9e8:	f7ff ffe0 	bl	23ff9ac <_ZN12_GLOBAL__N_118defaultUsartConfigEv>
}
 23ff9ec:	4620      	mov	r0, r4
 23ff9ee:	bd10      	pop	{r4, pc}

023ff9f0 <_Z20acquireSerial2Bufferv>:
 23ff9f0:	b510      	push	{r4, lr}
 23ff9f2:	4604      	mov	r4, r0
 23ff9f4:	f7ff ffda 	bl	23ff9ac <_ZN12_GLOBAL__N_118defaultUsartConfigEv>
 23ff9f8:	4620      	mov	r0, r4
 23ff9fa:	bd10      	pop	{r4, pc}

023ff9fc <_Z20acquireSerial3Bufferv>:
 23ff9fc:	b510      	push	{r4, lr}
 23ff9fe:	4604      	mov	r4, r0
 23ffa00:	f7ff ffd4 	bl	23ff9ac <_ZN12_GLOBAL__N_118defaultUsartConfigEv>
 23ffa04:	4620      	mov	r0, r4
 23ffa06:	bd10      	pop	{r4, pc}

023ffa08 <_Z22__fetch_global_Serial1v>:
{
 23ffa08:	b530      	push	{r4, r5, lr}
    static USARTSerial serial1(HAL_USART_SERIAL1, acquireSerial1Buffer());
 23ffa0a:	4d0e      	ldr	r5, [pc, #56]	; (23ffa44 <_Z22__fetch_global_Serial1v+0x3c>)
{
 23ffa0c:	b087      	sub	sp, #28
    static USARTSerial serial1(HAL_USART_SERIAL1, acquireSerial1Buffer());
 23ffa0e:	e8d5 1f8f 	ldab	r1, [r5]
 23ffa12:	f011 0401 	ands.w	r4, r1, #1
 23ffa16:	d111      	bne.n	23ffa3c <_Z22__fetch_global_Serial1v+0x34>
 23ffa18:	4628      	mov	r0, r5
 23ffa1a:	f7fe fb62 	bl	23fe0e2 <__cxa_guard_acquire>
 23ffa1e:	b168      	cbz	r0, 23ffa3c <_Z22__fetch_global_Serial1v+0x34>
 23ffa20:	a801      	add	r0, sp, #4
 23ffa22:	f7ff ffdf 	bl	23ff9e4 <_Z20acquireSerial1Bufferv>
 23ffa26:	4621      	mov	r1, r4
 23ffa28:	aa01      	add	r2, sp, #4
 23ffa2a:	4807      	ldr	r0, [pc, #28]	; (23ffa48 <_Z22__fetch_global_Serial1v+0x40>)
 23ffa2c:	f7ff fdb4 	bl	23ff598 <_ZN11USARTSerialC1E21hal_usart_interface_tRK25hal_usart_buffer_config_t>
 23ffa30:	4628      	mov	r0, r5
 23ffa32:	f7fe fb5b 	bl	23fe0ec <__cxa_guard_release>
 23ffa36:	4805      	ldr	r0, [pc, #20]	; (23ffa4c <_Z22__fetch_global_Serial1v+0x44>)
 23ffa38:	f000 f8b8 	bl	23ffbac <atexit>
    return serial1;
}
 23ffa3c:	4802      	ldr	r0, [pc, #8]	; (23ffa48 <_Z22__fetch_global_Serial1v+0x40>)
 23ffa3e:	b007      	add	sp, #28
 23ffa40:	bd30      	pop	{r4, r5, pc}
 23ffa42:	bf00      	nop
 23ffa44:	1007af04 	.word	0x1007af04
 23ffa48:	1007af10 	.word	0x1007af10
 23ffa4c:	023ff9ab 	.word	0x023ff9ab

023ffa50 <_Z22__fetch_global_Serial2v>:

#if Wiring_Serial2
USARTSerial& __fetch_global_Serial2()
{
 23ffa50:	b510      	push	{r4, lr}
	static USARTSerial serial2(HAL_USART_SERIAL2, acquireSerial2Buffer());
 23ffa52:	4c0d      	ldr	r4, [pc, #52]	; (23ffa88 <_Z22__fetch_global_Serial2v+0x38>)
{
 23ffa54:	b086      	sub	sp, #24
	static USARTSerial serial2(HAL_USART_SERIAL2, acquireSerial2Buffer());
 23ffa56:	e8d4 3f8f 	ldab	r3, [r4]
 23ffa5a:	07db      	lsls	r3, r3, #31
 23ffa5c:	d411      	bmi.n	23ffa82 <_Z22__fetch_global_Serial2v+0x32>
 23ffa5e:	4620      	mov	r0, r4
 23ffa60:	f7fe fb3f 	bl	23fe0e2 <__cxa_guard_acquire>
 23ffa64:	b168      	cbz	r0, 23ffa82 <_Z22__fetch_global_Serial2v+0x32>
 23ffa66:	a801      	add	r0, sp, #4
 23ffa68:	f7ff ffc2 	bl	23ff9f0 <_Z20acquireSerial2Bufferv>
 23ffa6c:	2101      	movs	r1, #1
 23ffa6e:	aa01      	add	r2, sp, #4
 23ffa70:	4806      	ldr	r0, [pc, #24]	; (23ffa8c <_Z22__fetch_global_Serial2v+0x3c>)
 23ffa72:	f7ff fd91 	bl	23ff598 <_ZN11USARTSerialC1E21hal_usart_interface_tRK25hal_usart_buffer_config_t>
 23ffa76:	4620      	mov	r0, r4
 23ffa78:	f7fe fb38 	bl	23fe0ec <__cxa_guard_release>
 23ffa7c:	4804      	ldr	r0, [pc, #16]	; (23ffa90 <_Z22__fetch_global_Serial2v+0x40>)
 23ffa7e:	f000 f895 	bl	23ffbac <atexit>
	return serial2;
}
 23ffa82:	4802      	ldr	r0, [pc, #8]	; (23ffa8c <_Z22__fetch_global_Serial2v+0x3c>)
 23ffa84:	b006      	add	sp, #24
 23ffa86:	bd10      	pop	{r4, pc}
 23ffa88:	1007af08 	.word	0x1007af08
 23ffa8c:	1007af24 	.word	0x1007af24
 23ffa90:	023ff9e3 	.word	0x023ff9e3

023ffa94 <_Z15serialEventRun2v>:

void serialEventRun2()
{
 23ffa94:	b510      	push	{r4, lr}
    __handleSerialEvent(Serial2, serialEvent2);
 23ffa96:	f7ff ffdb 	bl	23ffa50 <_Z22__fetch_global_Serial2v>

inline void __handleSerialEvent(USARTSerial& serial, void (*handler)(void)) __attribute__((always_inline));

inline void __handleSerialEvent(USARTSerial& serial, void (*handler)(void))
{
    if (handler && serial.isEnabled() && serial.available()>0)
 23ffa9a:	4b07      	ldr	r3, [pc, #28]	; (23ffab8 <_Z15serialEventRun2v+0x24>)
 23ffa9c:	4604      	mov	r4, r0
 23ffa9e:	b153      	cbz	r3, 23ffab6 <_Z15serialEventRun2v+0x22>
 23ffaa0:	f7ff fd8e 	bl	23ff5c0 <_ZN11USARTSerial9isEnabledEv>
 23ffaa4:	b138      	cbz	r0, 23ffab6 <_Z15serialEventRun2v+0x22>
 23ffaa6:	6823      	ldr	r3, [r4, #0]
 23ffaa8:	4620      	mov	r0, r4
 23ffaaa:	691b      	ldr	r3, [r3, #16]
 23ffaac:	4798      	blx	r3
 23ffaae:	2800      	cmp	r0, #0
 23ffab0:	dd01      	ble.n	23ffab6 <_Z15serialEventRun2v+0x22>
        handler();
 23ffab2:	e000      	b.n	23ffab6 <_Z15serialEventRun2v+0x22>
 23ffab4:	bf00      	nop
}
 23ffab6:	bd10      	pop	{r4, pc}
 23ffab8:	00000000 	.word	0x00000000

023ffabc <_Z22__fetch_global_Serial3v>:
#endif

#if Wiring_Serial3
USARTSerial& __fetch_global_Serial3()
{
 23ffabc:	b510      	push	{r4, lr}
	static USARTSerial serial3(HAL_USART_SERIAL3, acquireSerial3Buffer());
 23ffabe:	4c0d      	ldr	r4, [pc, #52]	; (23ffaf4 <_Z22__fetch_global_Serial3v+0x38>)
{
 23ffac0:	b086      	sub	sp, #24
	static USARTSerial serial3(HAL_USART_SERIAL3, acquireSerial3Buffer());
 23ffac2:	e8d4 3f8f 	ldab	r3, [r4]
 23ffac6:	07db      	lsls	r3, r3, #31
 23ffac8:	d411      	bmi.n	23ffaee <_Z22__fetch_global_Serial3v+0x32>
 23ffaca:	4620      	mov	r0, r4
 23ffacc:	f7fe fb09 	bl	23fe0e2 <__cxa_guard_acquire>
 23ffad0:	b168      	cbz	r0, 23ffaee <_Z22__fetch_global_Serial3v+0x32>
 23ffad2:	a801      	add	r0, sp, #4
 23ffad4:	f7ff ff92 	bl	23ff9fc <_Z20acquireSerial3Bufferv>
 23ffad8:	2102      	movs	r1, #2
 23ffada:	aa01      	add	r2, sp, #4
 23ffadc:	4806      	ldr	r0, [pc, #24]	; (23ffaf8 <_Z22__fetch_global_Serial3v+0x3c>)
 23ffade:	f7ff fd5b 	bl	23ff598 <_ZN11USARTSerialC1E21hal_usart_interface_tRK25hal_usart_buffer_config_t>
 23ffae2:	4620      	mov	r0, r4
 23ffae4:	f7fe fb02 	bl	23fe0ec <__cxa_guard_release>
 23ffae8:	4804      	ldr	r0, [pc, #16]	; (23ffafc <_Z22__fetch_global_Serial3v+0x40>)
 23ffaea:	f000 f85f 	bl	23ffbac <atexit>
	return serial3;
}
 23ffaee:	4802      	ldr	r0, [pc, #8]	; (23ffaf8 <_Z22__fetch_global_Serial3v+0x3c>)
 23ffaf0:	b006      	add	sp, #24
 23ffaf2:	bd10      	pop	{r4, pc}
 23ffaf4:	1007af0c 	.word	0x1007af0c
 23ffaf8:	1007af38 	.word	0x1007af38
 23ffafc:	023ff9e1 	.word	0x023ff9e1

023ffb00 <_Z15serialEventRun3v>:

void serialEventRun3()
{
 23ffb00:	b510      	push	{r4, lr}
    __handleSerialEvent(Serial3, serialEvent3);
 23ffb02:	f7ff ffdb 	bl	23ffabc <_Z22__fetch_global_Serial3v>
    if (handler && serial.isEnabled() && serial.available()>0)
 23ffb06:	4b07      	ldr	r3, [pc, #28]	; (23ffb24 <_Z15serialEventRun3v+0x24>)
 23ffb08:	4604      	mov	r4, r0
 23ffb0a:	b153      	cbz	r3, 23ffb22 <_Z15serialEventRun3v+0x22>
 23ffb0c:	f7ff fd58 	bl	23ff5c0 <_ZN11USARTSerial9isEnabledEv>
 23ffb10:	b138      	cbz	r0, 23ffb22 <_Z15serialEventRun3v+0x22>
 23ffb12:	6823      	ldr	r3, [r4, #0]
 23ffb14:	4620      	mov	r0, r4
 23ffb16:	691b      	ldr	r3, [r3, #16]
 23ffb18:	4798      	blx	r3
 23ffb1a:	2800      	cmp	r0, #0
 23ffb1c:	dd01      	ble.n	23ffb22 <_Z15serialEventRun3v+0x22>
        handler();
 23ffb1e:	e000      	b.n	23ffb22 <_Z15serialEventRun3v+0x22>
 23ffb20:	bf00      	nop
}
 23ffb22:	bd10      	pop	{r4, pc}
 23ffb24:	00000000 	.word	0x00000000

023ffb28 <__tcf_0>:
}
#endif

TwoWire& __fetch_global_Wire()
{
	static TwoWire wire(HAL_I2C_INTERFACE1, acquireWireBuffer());
 23ffb28:	4770      	bx	lr
	...

023ffb2c <_Z17acquireWireBufferv>:
{
 23ffb2c:	b538      	push	{r3, r4, r5, lr}
	hal_i2c_config_t config = {
 23ffb2e:	4b0a      	ldr	r3, [pc, #40]	; (23ffb58 <_Z17acquireWireBufferv+0x2c>)
{
 23ffb30:	4604      	mov	r4, r0
	hal_i2c_config_t config = {
 23ffb32:	6003      	str	r3, [r0, #0]
 23ffb34:	2301      	movs	r3, #1
		.rx_buffer = new (std::nothrow) uint8_t[i2c_buffer_size],
 23ffb36:	4909      	ldr	r1, [pc, #36]	; (23ffb5c <_Z17acquireWireBufferv+0x30>)
	hal_i2c_config_t config = {
 23ffb38:	6143      	str	r3, [r0, #20]
		.rx_buffer = new (std::nothrow) uint8_t[i2c_buffer_size],
 23ffb3a:	2020      	movs	r0, #32
 23ffb3c:	f000 f834 	bl	23ffba8 <_ZnajRKSt9nothrow_t>
	};
 23ffb40:	2520      	movs	r5, #32
 23ffb42:	6060      	str	r0, [r4, #4]
		.tx_buffer = new (std::nothrow) uint8_t[i2c_buffer_size],
 23ffb44:	4905      	ldr	r1, [pc, #20]	; (23ffb5c <_Z17acquireWireBufferv+0x30>)
 23ffb46:	4628      	mov	r0, r5
	};
 23ffb48:	60a5      	str	r5, [r4, #8]
		.tx_buffer = new (std::nothrow) uint8_t[i2c_buffer_size],
 23ffb4a:	f000 f82d 	bl	23ffba8 <_ZnajRKSt9nothrow_t>
	};
 23ffb4e:	e9c4 0503 	strd	r0, r5, [r4, #12]
}
 23ffb52:	4620      	mov	r0, r4
 23ffb54:	bd38      	pop	{r3, r4, r5, pc}
 23ffb56:	bf00      	nop
 23ffb58:	00010018 	.word	0x00010018
 23ffb5c:	023fff38 	.word	0x023fff38

023ffb60 <_Z19__fetch_global_Wirev>:
{
 23ffb60:	b530      	push	{r4, r5, lr}
	static TwoWire wire(HAL_I2C_INTERFACE1, acquireWireBuffer());
 23ffb62:	4d0e      	ldr	r5, [pc, #56]	; (23ffb9c <_Z19__fetch_global_Wirev+0x3c>)
{
 23ffb64:	b087      	sub	sp, #28
	static TwoWire wire(HAL_I2C_INTERFACE1, acquireWireBuffer());
 23ffb66:	e8d5 1f8f 	ldab	r1, [r5]
 23ffb6a:	f011 0401 	ands.w	r4, r1, #1
 23ffb6e:	d111      	bne.n	23ffb94 <_Z19__fetch_global_Wirev+0x34>
 23ffb70:	4628      	mov	r0, r5
 23ffb72:	f7fe fab6 	bl	23fe0e2 <__cxa_guard_acquire>
 23ffb76:	b168      	cbz	r0, 23ffb94 <_Z19__fetch_global_Wirev+0x34>
 23ffb78:	4668      	mov	r0, sp
 23ffb7a:	f7ff ffd7 	bl	23ffb2c <_Z17acquireWireBufferv>
 23ffb7e:	466a      	mov	r2, sp
 23ffb80:	4621      	mov	r1, r4
 23ffb82:	4807      	ldr	r0, [pc, #28]	; (23ffba0 <_Z19__fetch_global_Wirev+0x40>)
 23ffb84:	f7ff fd4c 	bl	23ff620 <_ZN7TwoWireC1E19hal_i2c_interface_tRK16hal_i2c_config_t>
 23ffb88:	4628      	mov	r0, r5
 23ffb8a:	f7fe faaf 	bl	23fe0ec <__cxa_guard_release>
 23ffb8e:	4805      	ldr	r0, [pc, #20]	; (23ffba4 <_Z19__fetch_global_Wirev+0x44>)
 23ffb90:	f000 f80c 	bl	23ffbac <atexit>
	return wire;
}
 23ffb94:	4802      	ldr	r0, [pc, #8]	; (23ffba0 <_Z19__fetch_global_Wirev+0x40>)
 23ffb96:	b007      	add	sp, #28
 23ffb98:	bd30      	pop	{r4, r5, pc}
 23ffb9a:	bf00      	nop
 23ffb9c:	1007af50 	.word	0x1007af50
 23ffba0:	1007af54 	.word	0x1007af54
 23ffba4:	023ffb29 	.word	0x023ffb29

023ffba8 <_ZnajRKSt9nothrow_t>:
 23ffba8:	f7fe ba97 	b.w	23fe0da <_Znaj>

023ffbac <atexit>:
 23ffbac:	2300      	movs	r3, #0
 23ffbae:	4601      	mov	r1, r0
 23ffbb0:	461a      	mov	r2, r3
 23ffbb2:	4618      	mov	r0, r3
 23ffbb4:	f000 b844 	b.w	23ffc40 <__register_exitproc>

023ffbb8 <memcpy>:
 23ffbb8:	440a      	add	r2, r1
 23ffbba:	1e43      	subs	r3, r0, #1
 23ffbbc:	4291      	cmp	r1, r2
 23ffbbe:	d100      	bne.n	23ffbc2 <memcpy+0xa>
 23ffbc0:	4770      	bx	lr
 23ffbc2:	b510      	push	{r4, lr}
 23ffbc4:	f811 4b01 	ldrb.w	r4, [r1], #1
 23ffbc8:	4291      	cmp	r1, r2
 23ffbca:	f803 4f01 	strb.w	r4, [r3, #1]!
 23ffbce:	d1f9      	bne.n	23ffbc4 <memcpy+0xc>
 23ffbd0:	bd10      	pop	{r4, pc}

023ffbd2 <memset>:
 23ffbd2:	4402      	add	r2, r0
 23ffbd4:	4603      	mov	r3, r0
 23ffbd6:	4293      	cmp	r3, r2
 23ffbd8:	d100      	bne.n	23ffbdc <memset+0xa>
 23ffbda:	4770      	bx	lr
 23ffbdc:	f803 1b01 	strb.w	r1, [r3], #1
 23ffbe0:	e7f9      	b.n	23ffbd6 <memset+0x4>
	...

023ffbe4 <srand>:
 23ffbe4:	b538      	push	{r3, r4, r5, lr}
 23ffbe6:	4b10      	ldr	r3, [pc, #64]	; (23ffc28 <srand+0x44>)
 23ffbe8:	4604      	mov	r4, r0
 23ffbea:	681d      	ldr	r5, [r3, #0]
 23ffbec:	6bab      	ldr	r3, [r5, #56]	; 0x38
 23ffbee:	b9b3      	cbnz	r3, 23ffc1e <srand+0x3a>
 23ffbf0:	2018      	movs	r0, #24
 23ffbf2:	f7ff f911 	bl	23fee18 <malloc>
 23ffbf6:	4602      	mov	r2, r0
 23ffbf8:	63a8      	str	r0, [r5, #56]	; 0x38
 23ffbfa:	b920      	cbnz	r0, 23ffc06 <srand+0x22>
 23ffbfc:	4b0b      	ldr	r3, [pc, #44]	; (23ffc2c <srand+0x48>)
 23ffbfe:	2142      	movs	r1, #66	; 0x42
 23ffc00:	480b      	ldr	r0, [pc, #44]	; (23ffc30 <srand+0x4c>)
 23ffc02:	f7ff f933 	bl	23fee6c <__assert_func>
 23ffc06:	490b      	ldr	r1, [pc, #44]	; (23ffc34 <srand+0x50>)
 23ffc08:	4b0b      	ldr	r3, [pc, #44]	; (23ffc38 <srand+0x54>)
 23ffc0a:	e9c0 1300 	strd	r1, r3, [r0]
 23ffc0e:	4b0b      	ldr	r3, [pc, #44]	; (23ffc3c <srand+0x58>)
 23ffc10:	2100      	movs	r1, #0
 23ffc12:	6083      	str	r3, [r0, #8]
 23ffc14:	230b      	movs	r3, #11
 23ffc16:	8183      	strh	r3, [r0, #12]
 23ffc18:	2001      	movs	r0, #1
 23ffc1a:	e9c2 0104 	strd	r0, r1, [r2, #16]
 23ffc1e:	6bab      	ldr	r3, [r5, #56]	; 0x38
 23ffc20:	2200      	movs	r2, #0
 23ffc22:	611c      	str	r4, [r3, #16]
 23ffc24:	615a      	str	r2, [r3, #20]
 23ffc26:	bd38      	pop	{r3, r4, r5, pc}
 23ffc28:	1007ade0 	.word	0x1007ade0
 23ffc2c:	023fff39 	.word	0x023fff39
 23ffc30:	023fff50 	.word	0x023fff50
 23ffc34:	abcd330e 	.word	0xabcd330e
 23ffc38:	e66d1234 	.word	0xe66d1234
 23ffc3c:	0005deec 	.word	0x0005deec

023ffc40 <__register_exitproc>:
 23ffc40:	e92d 43f8 	stmdb	sp!, {r3, r4, r5, r6, r7, r8, r9, lr}
 23ffc44:	f8df 80bc 	ldr.w	r8, [pc, #188]	; 23ffd04 <__register_exitproc+0xc4>
 23ffc48:	4606      	mov	r6, r0
 23ffc4a:	461f      	mov	r7, r3
 23ffc4c:	460d      	mov	r5, r1
 23ffc4e:	f8d8 0000 	ldr.w	r0, [r8]
 23ffc52:	4691      	mov	r9, r2
 23ffc54:	f000 f858 	bl	23ffd08 <__retarget_lock_acquire_recursive>
 23ffc58:	4b26      	ldr	r3, [pc, #152]	; (23ffcf4 <__register_exitproc+0xb4>)
 23ffc5a:	681c      	ldr	r4, [r3, #0]
 23ffc5c:	b934      	cbnz	r4, 23ffc6c <__register_exitproc+0x2c>
 23ffc5e:	4c26      	ldr	r4, [pc, #152]	; (23ffcf8 <__register_exitproc+0xb8>)
 23ffc60:	601c      	str	r4, [r3, #0]
 23ffc62:	4b26      	ldr	r3, [pc, #152]	; (23ffcfc <__register_exitproc+0xbc>)
 23ffc64:	b113      	cbz	r3, 23ffc6c <__register_exitproc+0x2c>
 23ffc66:	681b      	ldr	r3, [r3, #0]
 23ffc68:	f8c4 3088 	str.w	r3, [r4, #136]	; 0x88
 23ffc6c:	6863      	ldr	r3, [r4, #4]
 23ffc6e:	2b1f      	cmp	r3, #31
 23ffc70:	dd07      	ble.n	23ffc82 <__register_exitproc+0x42>
 23ffc72:	f8d8 0000 	ldr.w	r0, [r8]
 23ffc76:	f000 f849 	bl	23ffd0c <__retarget_lock_release_recursive>
 23ffc7a:	f04f 30ff 	mov.w	r0, #4294967295
 23ffc7e:	e8bd 83f8 	ldmia.w	sp!, {r3, r4, r5, r6, r7, r8, r9, pc}
 23ffc82:	b35e      	cbz	r6, 23ffcdc <__register_exitproc+0x9c>
 23ffc84:	f8d4 0088 	ldr.w	r0, [r4, #136]	; 0x88
 23ffc88:	b988      	cbnz	r0, 23ffcae <__register_exitproc+0x6e>
 23ffc8a:	4b1d      	ldr	r3, [pc, #116]	; (23ffd00 <__register_exitproc+0xc0>)
 23ffc8c:	b923      	cbnz	r3, 23ffc98 <__register_exitproc+0x58>
 23ffc8e:	f8d8 0000 	ldr.w	r0, [r8]
 23ffc92:	f000 f83a 	bl	23ffd0a <__retarget_lock_release>
 23ffc96:	e7f0      	b.n	23ffc7a <__register_exitproc+0x3a>
 23ffc98:	f44f 7084 	mov.w	r0, #264	; 0x108
 23ffc9c:	f7ff f8bc 	bl	23fee18 <malloc>
 23ffca0:	2800      	cmp	r0, #0
 23ffca2:	d0f4      	beq.n	23ffc8e <__register_exitproc+0x4e>
 23ffca4:	2300      	movs	r3, #0
 23ffca6:	e9c0 3340 	strd	r3, r3, [r0, #256]	; 0x100
 23ffcaa:	f8c4 0088 	str.w	r0, [r4, #136]	; 0x88
 23ffcae:	6863      	ldr	r3, [r4, #4]
 23ffcb0:	2201      	movs	r2, #1
 23ffcb2:	2e02      	cmp	r6, #2
 23ffcb4:	f840 9023 	str.w	r9, [r0, r3, lsl #2]
 23ffcb8:	fa02 f203 	lsl.w	r2, r2, r3
 23ffcbc:	eb00 0183 	add.w	r1, r0, r3, lsl #2
 23ffcc0:	f8d0 3100 	ldr.w	r3, [r0, #256]	; 0x100
 23ffcc4:	ea43 0302 	orr.w	r3, r3, r2
 23ffcc8:	f8c0 3100 	str.w	r3, [r0, #256]	; 0x100
 23ffccc:	f8c1 7080 	str.w	r7, [r1, #128]	; 0x80
 23ffcd0:	bf02      	ittt	eq
 23ffcd2:	f8d0 3104 	ldreq.w	r3, [r0, #260]	; 0x104
 23ffcd6:	4313      	orreq	r3, r2
 23ffcd8:	f8c0 3104 	streq.w	r3, [r0, #260]	; 0x104
 23ffcdc:	6863      	ldr	r3, [r4, #4]
 23ffcde:	f8d8 0000 	ldr.w	r0, [r8]
 23ffce2:	1c5a      	adds	r2, r3, #1
 23ffce4:	3302      	adds	r3, #2
 23ffce6:	6062      	str	r2, [r4, #4]
 23ffce8:	f844 5023 	str.w	r5, [r4, r3, lsl #2]
 23ffcec:	f000 f80e 	bl	23ffd0c <__retarget_lock_release_recursive>
 23ffcf0:	2000      	movs	r0, #0
 23ffcf2:	e7c4      	b.n	23ffc7e <__register_exitproc+0x3e>
 23ffcf4:	1007aff4 	.word	0x1007aff4
 23ffcf8:	1007af68 	.word	0x1007af68
 23ffcfc:	00000000 	.word	0x00000000
 23ffd00:	023fee19 	.word	0x023fee19
 23ffd04:	1007ae44 	.word	0x1007ae44

023ffd08 <__retarget_lock_acquire_recursive>:
 23ffd08:	4770      	bx	lr

023ffd0a <__retarget_lock_release>:
 23ffd0a:	4770      	bx	lr

023ffd0c <__retarget_lock_release_recursive>:
 23ffd0c:	4770      	bx	lr
	...

023ffd10 <dynalib_user>:
 23ffd10:	e0a1 023f e0c9 023f e0cd 023f 0000 0000     ..?...?...?.....
 23ffd20:	6572 6461 6e69 2067 6925 000a 6579 6c6c     reading %i..yell
 23ffd30:	776f 5300 4950 532f 4950 2031 6e69 6574     ow.SPI/SPI1 inte
 23ffd40:	6672 6361 2065 6f6e 2074 6564 6966 656e     rface not define
 23ffd50:	2164 0000 6950 6578 206c 7974 6570 6e20     d!..Pixel type n
 23ffd60:	746f 7320 7075 6f70 7472 6465 0021 0000     ot supported!...
 23ffd70:	6f4e 2074 6e65 756f 6867 6d20 6d65 726f     Not enough memor
 23ffd80:	2079 7661 6961 616c 6c62 2165 0000 0000     y available!....

023ffd90 <_ZTVN5spark13EthernetClassE>:
	...
 23ffd98:	ef03 023f eef9 023f eeef 023f eee5 023f     ..?...?...?...?.
 23ffda8:	eed9 023f eecd 023f f735 023f f73d 023f     ..?...?.5.?.=.?.
 23ffdb8:	eec1 023f eeb9 023f eeaf 023f eea5 023f     ..?...?...?...?.
 23ffdc8:	f865 023f f76d 023f f775 023f               e.?.m.?.u.?.

023ffdd4 <_ZN12_GLOBAL__N_1L14clock_divisorsE>:
 23ffdd4:	0800 1810 2820 3830 7061 0070 5925 252d     .... (08app.%Y-%
 23ffde4:	2d6d 6425 2554 3a48 4d25 253a 2553 007a     m-%dT%H:%M:%S%z.
 23ffdf4:	7361 7463 6d69 0065                         asctime.

023ffdfc <_ZTV9IPAddress>:
	...
 23ffe04:	f331 023f f321 023f f323 023f               1.?.!.?.#.?.

023ffe10 <_ZTV9USBSerial>:
	...
 23ffe18:	f417 023f f47f 023f f455 023f f039 023f     ..?...?.U.?.9.?.
 23ffe28:	f447 023f f419 023f f429 023f f479 023f     G.?...?.).?.y.?.
 23ffe38:	f16f 023f f439 023f f411 023f               o.?.9.?...?.

023ffe44 <_ZTV11USARTSerial>:
	...
 23ffe4c:	f51d 023f f589 023f f561 023f f039 023f     ..?...?.a.?.9.?.
 23ffe5c:	f531 023f f54d 023f f53f 023f f55b 023f     1.?.M.?.?.?.[.?.
 23ffe6c:	f16f 023f f51f 023f f523 023f               o.?...?.#.?.

023ffe78 <_ZTV7TwoWire>:
	...
 23ffe80:	f5c7 023f f611 023f f5e9 023f f5c9 023f     ..?...?...?...?.
 23ffe90:	f5f1 023f f5f9 023f f601 023f f609 023f     ..?...?...?...?.
 23ffea0:	f16f 023f                                   o.?.

023ffea4 <_ZTVN5spark9WiFiClassE>:
	...
 23ffeac:	f6d7 023f f6cd 023f f6c3 023f f679 023f     ..?...?...?.y.?.
 23ffebc:	f6b7 023f f6ab 023f f735 023f f73d 023f     ..?...?.5.?.=.?.
 23ffecc:	f69f 023f f697 023f f68d 023f f683 023f     ..?...?...?...?.
 23ffedc:	f865 023f f76d 023f f775 023f               e.?.m.?.u.?.

023ffee8 <CSWTCH.109>:
 23ffee8:	ae80 1007 aee8 1007 aef0 1007               ............

023ffef4 <_ZTVN5spark12NetworkClassE>:
	...
 23ffefc:	f6f5 023f f6ff 023f f709 023f f713 023f     ..?...?...?...?.
 23fff0c:	f71d 023f f729 023f f735 023f f73d 023f     ..?.).?.5.?.=.?.
 23fff1c:	f745 023f f751 023f f759 023f f763 023f     E.?.Q.?.Y.?.c.?.
 23fff2c:	f865 023f f76d 023f f775 023f               e.?.m.?.u.?.

023fff38 <_ZSt7nothrow>:
 23fff38:	5200 4545 544e 6d20 6c61 6f6c 2063 7573     .REENT malloc su
 23fff48:	6363 6565 6564 0064 6d2f 746e 772f 726f     cceeded./mnt/wor
 23fff58:	736b 6170 6563 772f 726f 736b 6170 6563     kspace/workspace
 23fff68:	472f 4343 312d 2d30 6970 6570 696c 656e     /GCC-10-pipeline
 23fff78:	6a2f 6e65 696b 736e 472d 4343 312d 2d30     /jenkins-GCC-10-
 23fff88:	6970 6570 696c 656e 342d 5f38 3032 3032     pipeline-48_2020
 23fff98:	3131 3432 315f 3036 3136 3038 3436 2f31     1124_1606180641/
 23fffa8:	7273 2f63 656e 6c77 6269 6e2f 7765 696c     src/newlib/newli
 23fffb8:	2f62 696c 6362 732f 6474 696c 2f62 6172     b/libc/stdlib/ra
 23fffc8:	646e 632e                                    nd.c.

023fffcd <link_const_data_end>:
 23fffcd:	00          	.byte	0x00
	...

023fffd0 <link_constructors_location>:
 23fffd0:	023fe231 	.word	0x023fe231
 23fffd4:	023fef0d 	.word	0x023fef0d
 23fffd8:	023ff005 	.word	0x023ff005
 23fffdc:	023ff029 	.word	0x023ff029
 23fffe0:	023ff199 	.word	0x023ff199
 23fffe4:	023ff1a9 	.word	0x023ff1a9
 23fffe8:	023ff1c5 	.word	0x023ff1c5
 23fffec:	023ff65d 	.word	0x023ff65d
 23ffff0:	023ff6e1 	.word	0x023ff6e1
 23ffff4:	023ff879 	.word	0x023ff879
